
sobel_work.elf:     file format elf32-littlenios2
sobel_work.elf
architecture: nios2:r1, flags 0x00000112:
EXEC_P, HAS_SYMS, D_PAGED
start address 0x00000244

Program Header:
    LOAD off    0x00001000 vaddr 0x00000000 paddr 0x00000000 align 2**12
         filesz 0x00000020 memsz 0x00000020 flags r-x
    LOAD off    0x00001020 vaddr 0x00000020 paddr 0x00000020 align 2**12
         filesz 0x00012888 memsz 0x00012888 flags r-x
    LOAD off    0x000138a8 vaddr 0x000128a8 paddr 0x00014394 align 2**12
         filesz 0x00001aec memsz 0x00001aec flags rw-
    LOAD off    0x00015e80 vaddr 0x00015e80 paddr 0x00015e80 align 2**12
         filesz 0x00000000 memsz 0x00000190 flags rw-

Sections:
Idx Name          Size      VMA       LMA       File off  Algn
  0 .entry        00000020  00000000  00000000  00001000  2**5
                  CONTENTS, ALLOC, LOAD, READONLY, CODE
  1 .exceptions   00000224  00000020  00000020  00001020  2**2
                  CONTENTS, ALLOC, LOAD, READONLY, CODE
  2 .text         00011eac  00000244  00000244  00001244  2**2
                  CONTENTS, ALLOC, LOAD, READONLY, CODE
  3 .rodata       000007b8  000120f0  000120f0  000130f0  2**2
                  CONTENTS, ALLOC, LOAD, READONLY, DATA
  4 .rwdata       00001aec  000128a8  00014394  000138a8  2**2
                  CONTENTS, ALLOC, LOAD, DATA, SMALL_DATA
  5 .bss          00000190  00015e80  00015e80  00015e80  2**2
                  ALLOC, SMALL_DATA
  6 .sdram_ctrl   00000000  00016010  00016010  00015394  2**0
                  CONTENTS
  7 .comment      00000023  00000000  00000000  00015394  2**0
                  CONTENTS, READONLY
  8 .debug_aranges 00001038  00000000  00000000  000153b8  2**3
                  CONTENTS, READONLY, DEBUGGING
  9 .debug_info   00025113  00000000  00000000  000163f0  2**0
                  CONTENTS, READONLY, DEBUGGING
 10 .debug_abbrev 000099a8  00000000  00000000  0003b503  2**0
                  CONTENTS, READONLY, DEBUGGING
 11 .debug_line   0000c517  00000000  00000000  00044eab  2**0
                  CONTENTS, READONLY, DEBUGGING
 12 .debug_frame  000027dc  00000000  00000000  000513c4  2**2
                  CONTENTS, READONLY, DEBUGGING
 13 .debug_str    00003de3  00000000  00000000  00053ba0  2**0
                  CONTENTS, READONLY, DEBUGGING
 14 .debug_loc    000178c0  00000000  00000000  00057983  2**0
                  CONTENTS, READONLY, DEBUGGING
 15 .debug_alt_sim_info 00000050  00000000  00000000  0006f244  2**2
                  CONTENTS, READONLY, DEBUGGING
 16 .debug_ranges 000018d8  00000000  00000000  0006f298  2**3
                  CONTENTS, READONLY, DEBUGGING
 17 .thread_model 00000003  00000000  00000000  00074612  2**0
                  CONTENTS, READONLY
 18 .cpu          0000000c  00000000  00000000  00074615  2**0
                  CONTENTS, READONLY
 19 .qsys         00000001  00000000  00000000  00074621  2**0
                  CONTENTS, READONLY
 20 .simulation_enabled 00000001  00000000  00000000  00074622  2**0
                  CONTENTS, READONLY
 21 .sysid_hash   00000004  00000000  00000000  00074623  2**0
                  CONTENTS, READONLY
 22 .sysid_base   00000004  00000000  00000000  00074627  2**0
                  CONTENTS, READONLY
 23 .sysid_time   00000004  00000000  00000000  0007462b  2**0
                  CONTENTS, READONLY
 24 .stderr_dev   00000009  00000000  00000000  0007462f  2**0
                  CONTENTS, READONLY
 25 .stdin_dev    00000009  00000000  00000000  00074638  2**0
                  CONTENTS, READONLY
 26 .stdout_dev   00000009  00000000  00000000  00074641  2**0
                  CONTENTS, READONLY
 27 .sopc_system_name 0000000b  00000000  00000000  0007464a  2**0
                  CONTENTS, READONLY
 28 .quartus_project_dir 00000065  00000000  00000000  00074655  2**0
                  CONTENTS, READONLY
 29 .jdi          00005a3e  00000000  00000000  000746ba  2**0
                  CONTENTS, READONLY
 30 .sopcinfo     000723e4  00000000  00000000  0007a0f8  2**0
                  CONTENTS, READONLY
SYMBOL TABLE:
00000000 l    d  .entry	00000000 .entry
00000020 l    d  .exceptions	00000000 .exceptions
00000244 l    d  .text	00000000 .text
000120f0 l    d  .rodata	00000000 .rodata
000128a8 l    d  .rwdata	00000000 .rwdata
00015e80 l    d  .bss	00000000 .bss
00016010 l    d  .sdram_ctrl	00000000 .sdram_ctrl
00000000 l    d  .comment	00000000 .comment
00000000 l    d  .debug_aranges	00000000 .debug_aranges
00000000 l    d  .debug_info	00000000 .debug_info
00000000 l    d  .debug_abbrev	00000000 .debug_abbrev
00000000 l    d  .debug_line	00000000 .debug_line
00000000 l    d  .debug_frame	00000000 .debug_frame
00000000 l    d  .debug_str	00000000 .debug_str
00000000 l    d  .debug_loc	00000000 .debug_loc
00000000 l    d  .debug_alt_sim_info	00000000 .debug_alt_sim_info
00000000 l    d  .debug_ranges	00000000 .debug_ranges
00000000 l    df *ABS*	00000000 /run/media/leemarc/Shared/Switchdrive/Private/Documents/Master/1_S1/EmbHardw/mse_demo/software/sobel_work_bsp//obj/HAL/src/crt0.o
0000027c l       .text	00000000 alt_after_alt_main
00000000 l    df *ABS*	00000000 alt_irq_handler.c
00000000 l    df *ABS*	00000000 alt_instruction_exception_entry.c
00000000 l    df *ABS*	00000000 camera.c
00000000 l    df *ABS*	00000000 dipswitch.c
00000000 l    df *ABS*	00000000 grayscale.c
00000000 l    df *ABS*	00000000 i2c.c
00000000 l    df *ABS*	00000000 lcd_simple.c
00000000 l    df *ABS*	00000000 main.c
00000000 l    df *ABS*	00000000 sobel.c
00000000 l    df *ABS*	00000000 vga.c
00000000 l    df *ABS*	00000000 malloc.c
00000000 l    df *ABS*	00000000 mallocr.c
00000000 l    df *ABS*	00000000 printf.c
00000000 l    df *ABS*	00000000 puts.c
00000000 l    df *ABS*	00000000 sbrkr.c
00000000 l    df *ABS*	00000000 strlen.c
00000000 l    df *ABS*	00000000 vfprintf.c
000125f6 l     O .rodata	00000010 zeroes.4404
000059dc l     F .text	000000bc __sbprintf
00012606 l     O .rodata	00000010 blanks.4403
00000000 l    df *ABS*	00000000 wsetup.c
00000000 l    df *ABS*	00000000 dtoa.c
00005bec l     F .text	00000200 quorem
00000000 l    df *ABS*	00000000 fflush.c
00000000 l    df *ABS*	00000000 findfp.c
0000771c l     F .text	00000008 __fp_unlock
00007730 l     F .text	0000019c __sinit.part.1
000078cc l     F .text	00000008 __fp_lock
00000000 l    df *ABS*	00000000 mallocr.c
00000000 l    df *ABS*	00000000 fvwrite.c
00000000 l    df *ABS*	00000000 fwalk.c
00000000 l    df *ABS*	00000000 impure.c
00012cb0 l     O .rwdata	00000424 impure_data
00000000 l    df *ABS*	00000000 int_errno.c
00000000 l    df *ABS*	00000000 locale.c
000130f4 l     O .rwdata	00000020 lc_ctype_charset
000130d4 l     O .rwdata	00000020 lc_message_charset
00013114 l     O .rwdata	00000038 lconv
00000000 l    df *ABS*	00000000 makebuf.c
00000000 l    df *ABS*	00000000 memchr.c
00000000 l    df *ABS*	00000000 memcpy.c
00000000 l    df *ABS*	00000000 memmove.c
00000000 l    df *ABS*	00000000 memset.c
00000000 l    df *ABS*	00000000 mprec.c
00012638 l     O .rodata	0000000c p05.2768
00000000 l    df *ABS*	00000000 mallocr.c
00000000 l    df *ABS*	00000000 s_fpclassify.c
00000000 l    df *ABS*	00000000 stdio.c
00000000 l    df *ABS*	00000000 strcmp.c
00000000 l    df *ABS*	00000000 vfprintf.c
0000a468 l     F .text	000000fc __sprint_r.part.0
0001276c l     O .rodata	00000010 blanks.4348
0001275c l     O .rodata	00000010 zeroes.4349
0000b9f4 l     F .text	000000bc __sbprintf
00000000 l    df *ABS*	00000000 writer.c
00000000 l    df *ABS*	00000000 closer.c
00000000 l    df *ABS*	00000000 mallocr.c
00000000 l    df *ABS*	00000000 fclose.c
00000000 l    df *ABS*	00000000 fputwc.c
00000000 l    df *ABS*	00000000 fstatr.c
00000000 l    df *ABS*	00000000 isattyr.c
00000000 l    df *ABS*	00000000 lseekr.c
00000000 l    df *ABS*	00000000 readr.c
00000000 l    df *ABS*	00000000 wbuf.c
00000000 l    df *ABS*	00000000 wcrtomb.c
00000000 l    df *ABS*	00000000 wctomb_r.c
00000000 l    df *ABS*	00000000 libgcc2.c
00000000 l    df *ABS*	00000000 libgcc2.c
00000000 l    df *ABS*	00000000 lib2-divmod.c
00000000 l    df *ABS*	00000000 adddf3.c
00000000 l    df *ABS*	00000000 divdf3.c
00000000 l    df *ABS*	00000000 eqdf2.c
00000000 l    df *ABS*	00000000 gedf2.c
00000000 l    df *ABS*	00000000 ledf2.c
00000000 l    df *ABS*	00000000 muldf3.c
00000000 l    df *ABS*	00000000 subdf3.c
00000000 l    df *ABS*	00000000 fixdfsi.c
00000000 l    df *ABS*	00000000 floatsidf.c
00000000 l    df *ABS*	00000000 floatunsidf.c
00000000 l    df *ABS*	00000000 libgcc2.c
00000000 l    df *ABS*	00000000 libgcc2.c
00000000 l    df *ABS*	00000000 alt_close.c
0000f6b0 l     F .text	0000003c alt_get_errno
00000000 l    df *ABS*	00000000 alt_dev.c
0000f7bc l     F .text	0000002c alt_dev_null_write
00000000 l    df *ABS*	00000000 alt_errno.c
00000000 l    df *ABS*	00000000 alt_fstat.c
0000f7e8 l     F .text	0000003c alt_get_errno
00000000 l    df *ABS*	00000000 alt_isatty.c
0000f8d4 l     F .text	0000003c alt_get_errno
00000000 l    df *ABS*	00000000 alt_load.c
0000f9b4 l     F .text	00000068 alt_load_section
00000000 l    df *ABS*	00000000 alt_lseek.c
0000faa0 l     F .text	0000003c alt_get_errno
00000000 l    df *ABS*	00000000 alt_main.c
00000000 l    df *ABS*	00000000 alt_malloc_lock.c
00000000 l    df *ABS*	00000000 alt_read.c
0000fc74 l     F .text	0000003c alt_get_errno
00000000 l    df *ABS*	00000000 alt_release_fd.c
00000000 l    df *ABS*	00000000 alt_sbrk.c
00014384 l     O .rwdata	00000004 heap_end
00000000 l    df *ABS*	00000000 alt_usleep.c
00000000 l    df *ABS*	00000000 alt_write.c
0000fef0 l     F .text	0000003c alt_get_errno
00000000 l    df *ABS*	00000000 alt_sys_init.c
00010024 l     F .text	00000034 alt_dev_reg
000132f4 l     O .rwdata	00001060 jtag_uart
00000000 l    df *ABS*	00000000 altera_avalon_jtag_uart_fd.c
00000000 l    df *ABS*	00000000 altera_avalon_jtag_uart_init.c
00010330 l     F .text	0000020c altera_avalon_jtag_uart_irq
0001053c l     F .text	000000a0 altera_avalon_jtag_uart_timeout
00000000 l    df *ABS*	00000000 altera_avalon_jtag_uart_ioctl.c
00000000 l    df *ABS*	00000000 altera_avalon_jtag_uart_read.c
00000000 l    df *ABS*	00000000 altera_avalon_jtag_uart_write.c
00000000 l    df *ABS*	00000000 altera_avalon_timer_sc.c
00010b74 l     F .text	00000078 alt_avalon_timer_sc_irq
00000000 l    df *ABS*	00000000 altera_avalon_timer_ts.c
00000000 l    df *ABS*	00000000 altera_avalon_timer_vars.c
00000000 l    df *ABS*	00000000 alt_alarm_start.c
00000000 l    df *ABS*	00000000 alt_busy_sleep.c
00000000 l    df *ABS*	00000000 alt_dcache_flush_all.c
00000000 l    df *ABS*	00000000 alt_dev_llist_insert.c
00011024 l     F .text	0000003c alt_get_errno
00000000 l    df *ABS*	00000000 alt_do_ctors.c
00000000 l    df *ABS*	00000000 alt_do_dtors.c
00000000 l    df *ABS*	00000000 alt_icache_flush_all.c
00000000 l    df *ABS*	00000000 alt_iic.c
00000000 l    df *ABS*	00000000 alt_iic_isr_register.c
00000000 l    df *ABS*	00000000 alt_io_redirect.c
00011498 l     F .text	000000c4 alt_open_fd
00000000 l    df *ABS*	00000000 alt_irq_vars.c
00000000 l    df *ABS*	00000000 alt_open.c
000115d8 l     F .text	0000003c alt_get_errno
00011614 l     F .text	000000c4 alt_file_locked
00000000 l    df *ABS*	00000000 alt_tick.c
00000000 l    df *ABS*	00000000 altera_nios2_gen2_irq.c
00000000 l    df *ABS*	00000000 alt_find_dev.c
00000000 l    df *ABS*	00000000 alt_find_file.c
00000000 l    df *ABS*	00000000 alt_get_fd.c
00000000 l    df *ABS*	00000000 alt_icache_flush.c
00000000 l    df *ABS*	00000000 atexit.c
00000000 l    df *ABS*	00000000 exit.c
00000000 l    df *ABS*	00000000 memcmp.c
00000000 l    df *ABS*	00000000 __atexit.c
00000000 l    df *ABS*	00000000 __call_atexit.c
00000000 l    df *ABS*	00000000 alt_exit.c
00015ee4 g     O .bss	00000004 alt_instruction_exception_handler
00009b00 g     F .text	00000074 _mprec_log10
00009bec g     F .text	0000008c __any_on
0000bf90 g     F .text	00000054 _isatty_r
00012644 g     O .rodata	00000028 __mprec_tinytens
0000fbb0 g     F .text	0000007c alt_main
00003608 g     F .text	000000c0 _puts_r
00015f10 g     O .bss	00000100 alt_irq
0000bfe4 g     F .text	00000060 _lseek_r
000125a4 g     O .rodata	00000009 gy_array
00014394 g       *ABS*	00000000 __flash_rwdata_start
0000e1dc g     F .text	00000088 .hidden __eqdf2
00016010 g       *ABS*	00000000 __alt_heap_start
000035cc g     F .text	0000003c printf
0000c1fc g     F .text	0000009c _wcrtomb_r
0000a328 g     F .text	0000005c __sseek
00007a6c g     F .text	00000010 __sinit
0000c0a4 g     F .text	00000140 __swbuf_r
00008534 g     F .text	0000007c _setlocale_r
000078d4 g     F .text	00000068 __sfmoreglue
0000fc50 g     F .text	00000024 __malloc_unlock
00000e9c g     F .text	00000044 LCD_Write_Command
00015e90 g     O .bss	00000004 sobel_width
00015ed4 g     O .bss	00000004 altera_avalon_timer_ts_freq
000089f8 g     F .text	0000015c memmove
00000ee0 g     F .text	00000044 LCD_Write_Data
00007a54 g     F .text	00000018 _cleanup
00008c7c g     F .text	000000a8 _Balloc
0000e264 g     F .text	000000dc .hidden __gtdf2
000119d0 g     F .text	00000024 altera_nios2_gen2_irq_init
00000000 g     F .entry	0000001c __reset
00000020 g       *ABS*	00000000 __flash_exceptions_start
00000764 g     F .text	0000004c cam_get_xsize
0000bf34 g     F .text	0000005c _fstat_r
00015eb4 g     O .bss	00000004 errno
0000a2a4 g     F .text	00000008 __seofread
00015ec8 g     O .bss	00000004 alt_argv
0001c354 g       *ABS*	00000000 _gp
0000fec0 g     F .text	00000030 usleep
000008a4 g     F .text	000000a8 cam_set_image_pointer
00013174 g     O .rwdata	00000180 alt_fd_list
00002cfc g     F .text	00000034 vga_set_pointer
000119f4 g     F .text	00000090 alt_find_dev
000088b0 g     F .text	00000148 memcpy
00007724 g     F .text	0000000c _cleanup_r
0000f4c8 g     F .text	000000dc .hidden __floatsidf
0001155c g     F .text	0000007c alt_io_redirect
0000e340 g     F .text	000000f4 .hidden __ltdf2
000120f0 g       *ABS*	00000000 __DTOR_END__
000036c8 g     F .text	00000014 puts
00011cc0 g     F .text	0000009c alt_exception_cause_generated_bad_addr
0000a1dc g     F .text	00000074 __fpclassifyd
00009a5c g     F .text	000000a4 __ratio
0000b9d8 g     F .text	0000001c __vfiprintf_internal
00010734 g     F .text	0000021c altera_avalon_jtag_uart_read
00002d68 g     F .text	00000014 malloc
0000359c g     F .text	00000030 _printf_r
00000c68 g     F .text	00000020 get_grayscale_picture
0000cf8c g     F .text	00000064 .hidden __udivsi3
00000280 g     F .text	000004e4 init_camera
00012348 g     O .rodata	00000128 lens_roll_off_tbl
0000f910 g     F .text	000000a4 isatty
00012694 g     O .rodata	000000c8 __mprec_tens
000085b0 g     F .text	0000000c __locale_charset
00011c30 g     F .text	00000090 alt_icache_flush
00015eb0 g     O .bss	00000004 __malloc_top_pad
00014364 g     O .rwdata	00000004 __mb_cur_max
000085e0 g     F .text	0000000c _localeconv_r
000024a8 g     F .text	000000c8 sobel_x
00009088 g     F .text	0000003c __i2b
00007ef0 g     F .text	000004bc __sfvwrite_r
00000f24 g     F .text	00000240 init_LCD
000036dc g     F .text	00000054 _sbrk_r
000007fc g     F .text	000000a8 cam_get_profiling
0000c044 g     F .text	00000060 _read_r
00015e94 g     O .bss	00000004 sobel_result
0001437c g     O .rwdata	00000004 alt_max_fd
0000bc28 g     F .text	000000f0 _fclose_r
000076ec g     F .text	00000030 fflush
00015eac g     O .bss	00000004 __malloc_max_sbrked_mem
00015e88 g     O .bss	00000004 grayscale_array
0000d048 g     F .text	000008ac .hidden __adddf3
000007b0 g     F .text	0000004c cam_get_ysize
00009804 g     F .text	0000010c __b2d
0000c95c g     F .text	00000538 .hidden __umoddi3
0000fadc g     F .text	000000d4 lseek
00000d78 g     F .text	000000a0 i2c_short_read
0001435c g     O .rwdata	00000004 _global_impure_ptr
00009c78 g     F .text	00000564 _realloc_r
00016010 g       *ABS*	00000000 __bss_end
000113a8 g     F .text	000000f0 alt_iic_isr_register
000118c8 g     F .text	00000108 alt_tick
0000c3e4 g     F .text	00000578 .hidden __udivdi3
0000be90 g     F .text	00000024 _fputwc_r
0001266c g     O .rodata	00000028 __mprec_bigtens
00008e6c g     F .text	00000104 __s2b
0000f5a4 g     F .text	000000a8 .hidden __floatunsidf
00009544 g     F .text	00000060 __mcmp
00007a8c g     F .text	00000018 __fp_lock_all
0001135c g     F .text	0000004c alt_ic_irq_enabled
00015e84 g     O .bss	00000004 grayscape_height
0001182c g     F .text	0000009c alt_alarm_stop
00015ed8 g     O .bss	00000004 alt_irq_active
000000fc g     F .exceptions	000000d4 alt_irq_handler
0001314c g     O .rwdata	00000028 alt_dev_null
00001208 g     F .text	000000c8 transfer_LCD_with_dma
00001980 g     F .text	00000520 sobel_complete
00011004 g     F .text	00000020 alt_dcache_flush_all
00008f70 g     F .text	00000068 __hi0bits
0000f448 g     F .text	00000080 .hidden __fixdfsi
00014394 g       *ABS*	00000000 __ram_rwdata_end
00014374 g     O .rwdata	00000008 alt_dev_list
0000ff2c g     F .text	000000f8 write
00010d60 g     F .text	00000020 alt_timestamp_freq
000128a8 g       *ABS*	00000000 __ram_rodata_end
0000f824 g     F .text	000000b0 fstat
0000e340 g     F .text	000000f4 .hidden __ledf2
000092bc g     F .text	00000140 __pow5mult
0000a57c g     F .text	0000145c ___vfiprintf_internal_r
00015ec0 g     O .bss	00000004 __nlocale_changed
0000cff0 g     F .text	00000058 .hidden __umodsi3
00002cbc g     F .text	00000020 GetSobel_rgb
00016010 g       *ABS*	00000000 end
00002cdc g     F .text	00000020 GetSobelResult
000009ac g     F .text	00000050 take_picture_blocking
00000a84 g     F .text	00000030 DIPSW_get_value
00002a6c g     F .text	0000013c sobel_y_with_rgb
00010270 g     F .text	000000c0 altera_avalon_jtag_uart_init
000001d0 g     F .exceptions	00000074 alt_instruction_exception_entry
00000984 g     F .text	00000028 current_image_pointer
000120f0 g       *ABS*	00000000 __CTOR_LIST__
01000000 g       *ABS*	00000000 __alt_stack_pointer
00010bec g     F .text	0000007c alt_avalon_timer_sc_init
0000f64c g     F .text	00000064 .hidden __clzsi2
00010950 g     F .text	00000224 altera_avalon_jtag_uart_write
00007a7c g     F .text	00000004 __sfp_lock_acquire
000087cc g     F .text	000000e4 memchr
000037c8 g     F .text	000021f8 ___vfprintf_internal_r
00007be0 g     F .text	00000310 _free_r
000085bc g     F .text	00000010 __locale_mb_cur_max
00002828 g     F .text	000000c8 sobel_y
00012208 g     O .rodata	00000140 noise_reduction_reg_settings_array
00011f3c g     F .text	00000180 __call_exitprocs
00015ebc g     O .bss	00000004 __mlocale_changed
00014354 g     O .rwdata	00000004 __malloc_sbrk_base
00000244 g     F .text	0000003c _start
00015edc g     O .bss	00000004 _alt_tick_rate
000093fc g     F .text	00000148 __lshift
00015ee0 g     O .bss	00000004 _alt_nticks
0000fcb0 g     F .text	000000fc read
00010090 g     F .text	0000007c alt_sys_init
00002160 g     F .text	00000348 sobel_mac_unroll
000026ec g     F .text	0000013c sobel_x_with_rgb
00011e24 g     F .text	00000118 __register_exitproc
000090c4 g     F .text	000001f8 __multiply
000105dc g     F .text	00000068 altera_avalon_jtag_uart_close
000128a8 g       *ABS*	00000000 __ram_rwdata_start
000120f0 g       *ABS*	00000000 __ram_rodata_start
00015ee8 g     O .bss	00000028 __malloc_current_mallinfo
00009910 g     F .text	0000014c __d2b
00015e98 g     O .bss	00000004 sobel_height
000009fc g     F .text	00000030 enable_continues_mode
0001010c g     F .text	00000060 altera_avalon_jtag_uart_read_fd
00001810 g     F .text	00000170 init_sobel_arrays
00011b8c g     F .text	000000a4 alt_get_fd
00010eac g     F .text	00000158 alt_busy_sleep
00000000 g       *ABS*	00000000 __alt_mem_sdram_ctrl
0000bb10 g     F .text	00000054 _close_r
00011da8 g     F .text	0000007c memcmp
000101cc g     F .text	00000050 altera_avalon_jtag_uart_close_fd
00016010 g       *ABS*	00000000 __alt_stack_base
0001021c g     F .text	00000054 altera_avalon_jtag_uart_ioctl_fd
00005a98 g     F .text	00000154 __swsetup_r
0000d8f4 g     F .text	000008e8 .hidden __divdf3
0000793c g     F .text	00000118 __sfp
00009b74 g     F .text	00000078 __copybits
000128a8 g     O .rwdata	00000408 __malloc_av_
00007a88 g     F .text	00000004 __sinit_lock_release
0000e434 g     F .text	00000718 .hidden __muldf3
0000a250 g     F .text	00000054 __sread
00011a84 g     F .text	00000108 alt_find_file
00011060 g     F .text	000000a4 alt_dev_llist_insert
0000fc2c g     F .text	00000024 __malloc_lock
0000fe10 g     F .text	000000b0 sbrk
00007690 g     F .text	0000005c _fflush_r
0000bb64 g     F .text	000000c4 _calloc_r
00002570 g     F .text	0000017c sobel_x_inline
00015e80 g       *ABS*	00000000 __bss_start
00001fa4 g     F .text	000001bc sobel_mac_unrollx
00008b54 g     F .text	00000128 memset
000012d0 g     F .text	00000540 main
00015ecc g     O .bss	00000004 alt_envp
00015ea8 g     O .bss	00000004 __malloc_max_total_mem
00000c28 g     F .text	00000020 get_grayscale_width
0001016c g     F .text	00000060 altera_avalon_jtag_uart_write_fd
0000c1e4 g     F .text	00000018 __swbuf
00015e9c g     O .bss	00000004 sobel_x_result
0000a384 g     F .text	00000008 __sclose
01000000 g       *ABS*	00000000 __alt_heap_limit
0000bd18 g     F .text	00000014 fclose
00010c68 g     F .text	00000078 alt_timestamp_start
00005dec g     F .text	00001688 _dtoa_r
00002d90 g     F .text	0000080c _malloc_r
0000c358 g     F .text	00000030 __ascii_wctomb
00014380 g     O .rwdata	00000004 alt_errno
000083ac g     F .text	000000c4 _fwalk
0000ce94 g     F .text	00000084 .hidden __divsi3
00007abc g     F .text	00000124 _malloc_trim_r
000120f0 g       *ABS*	00000000 __CTOR_END__
00015e80 g     O .bss	00000004 grayscale_width
0000a38c g     F .text	000000dc strcmp
00001164 g     F .text	000000a4 transfer_LCD_no_dma
000120f0 g       *ABS*	00000000 __flash_rodata_start
000120f0 g       *ABS*	00000000 __DTOR_LIST__
0000e1dc g     F .text	00000088 .hidden __nedf2
000120f0 g     O .rodata	00000118 preview_snapshot_mode_reg_settings_array
00010058 g     F .text	00000038 alt_irq_init
0000fdac g     F .text	00000064 alt_release_fd
00000cc4 g     F .text	000000b4 i2c_auto_detect
0001277c g     O .rodata	00000100 .hidden __clz_tab
0000094c g     F .text	00000038 current_image_valid
00015eb8 g     O .bss	00000004 _PathLocale
00000c88 g     F .text	0000003c i2c_busy_wait
00011d5c g     F .text	00000014 atexit
0000bab0 g     F .text	00000060 _write_r
000085ec g     F .text	00000018 setlocale
000028f0 g     F .text	0000017c sobel_y_inline
00014360 g     O .rwdata	00000004 _impure_ptr
00015ec4 g     O .bss	00000004 alt_argc
00007474 g     F .text	0000021c __sflush_r
00015ed0 g     O .bss	00000004 altera_avalon_timer_ts_base
00011164 g     F .text	00000060 _do_dtors
000085d8 g     F .text	00000008 __locale_cjk_lang
00000020 g       .exceptions	00000000 alt_irq_entry
000097a0 g     F .text	00000064 __ulp
00007aa4 g     F .text	00000018 __fp_unlock_all
0001436c g     O .rwdata	00000008 alt_fs_list
00015ea0 g     O .bss	00000004 sobel_y_result
00000e18 g     F .text	00000084 i2c_short_write
00000020 g       *ABS*	00000000 __ram_exceptions_start
00015e8c g     O .bss	00000002 LCD_height
00008604 g     F .text	0000000c localeconv
00010ce0 g     F .text	00000080 alt_timestamp
00002d30 g     F .text	00000038 vga_set_swap
000111f8 g     F .text	00000050 alt_ic_isr_register
00002ba8 g     F .text	00000114 sobel_threshold
00014394 g       *ABS*	00000000 _edata
00016010 g       *ABS*	00000000 _end
0000bd2c g     F .text	00000164 __fputwc
00000244 g       *ABS*	00000000 __ram_exceptions_end
00010644 g     F .text	000000f0 altera_avalon_jtag_uart_ioctl
0001259b g     O .rodata	00000009 gx_array
000112d0 g     F .text	0000008c alt_ic_irq_disable
0000a2ac g     F .text	0000007c __swrite
00014358 g     O .rwdata	00000004 __malloc_trim_threshold
00015e8e g     O .bss	00000002 LCD_width
00000ab4 g     F .text	00000174 conv_grayscale
000085cc g     F .text	0000000c __locale_msgcharset
00011d70 g     F .text	00000038 exit
00008470 g     F .text	000000c4 _fwalk_reent
000095a4 g     F .text	000001fc __mdiff
0000cf18 g     F .text	00000074 .hidden __modsi3
01000000 g       *ABS*	00000000 __alt_data_end
00000020 g     F .exceptions	00000000 alt_exception
00007a80 g     F .text	00000004 __sfp_lock_release
00000c48 g     F .text	00000020 get_grayscale_height
000120bc g     F .text	00000034 _exit
00001ea0 g     F .text	00000104 sobel_mac
00010d80 g     F .text	0000012c alt_alarm_start
00008610 g     F .text	000001bc __smakebuf_r
00015ea4 g     O .bss	00000004 sobel_rgb565
00003730 g     F .text	00000098 strlen
000116d8 g     F .text	00000154 open
0000e264 g     F .text	000000dc .hidden __gedf2
00014368 g     O .rwdata	00000004 __wctomb
0000a564 g     F .text	00000018 __sprint_r
000111c4 g     F .text	00000034 alt_icache_flush_all
00014388 g     O .rwdata	00000004 alt_priority_mask
00011248 g     F .text	00000088 alt_ic_irq_enable
000059c0 g     F .text	0000001c __vfprintf_internal
0000c388 g     F .text	0000005c _wctomb_r
0000eb4c g     F .text	000008fc .hidden __subdf3
00008fd8 g     F .text	000000b0 __lo0bits
0001438c g     O .rwdata	00000008 alt_alarm_list
00011104 g     F .text	00000060 _do_ctors
0000c298 g     F .text	000000c0 wcrtomb
0000f6ec g     F .text	000000d0 close
0000fa1c g     F .text	00000084 alt_load
0000beb4 g     F .text	00000080 fputwc
00002d7c g     F .text	00000014 free
00007a84 g     F .text	00000004 __sinit_lock_acquire
00008d4c g     F .text	00000120 __multadd
00008d24 g     F .text	00000028 _Bfree
00000a2c g     F .text	00000058 new_image_available



Disassembly of section .entry:

00000000 <__reset>:
#if NIOS2_ICACHE_SIZE > 0 && defined(ALT_ALLOW_CODE_AT_RESET) && (!defined(ALT_SIM_OPTIMIZE) || defined(NIOS2_ECC_PRESENT))
    /* Assume the instruction cache size is always a power of two. */
#if NIOS2_ICACHE_SIZE > 0x8000
    movhi r2, %hi(NIOS2_ICACHE_SIZE)
#else
    movui r2, NIOS2_ICACHE_SIZE
   0:	00840014 	movui	r2,4096
#endif

0:
    initi r2
   4:	1001483a 	initi	r2
    addi r2, r2, -NIOS2_ICACHE_LINE_SIZE
   8:	10bff804 	addi	r2,r2,-32
    bgt r2, zero, 0b
   c:	00bffd16 	blt	zero,r2,4 <__reset+0x4>
 * Jump to the _start entry point in the .text section if reset code
 * is allowed or if optimizing for RTL simulation.
 */
#if defined(ALT_ALLOW_CODE_AT_RESET) || defined(ALT_SIM_OPTIMIZE)
    /* Jump to the _start entry point in the .text section. */
    movhi r1, %hi(_start)
  10:	00400034 	movhi	at,0
    ori r1, r1, %lo(_start)
  14:	08409114 	ori	at,at,580
    jmp r1
  18:	0800683a 	jmp	at
  1c:	00000000 	call	0 <__reset>

Disassembly of section .exceptions:

00000020 <alt_exception>:

#else /* ALT_EXCEPTION_STACK disabled */
        /* 
         * Reserve space on normal stack for registers about to be pushed.
         */
        addi  sp, sp, -76
  20:	deffed04 	addi	sp,sp,-76
         * documentation for details).
         *
         * Leave a gap in the stack frame at 4(sp) for the muldiv handler to
         * store zero into.
         */
        stw   ra,  0(sp)
  24:	dfc00015 	stw	ra,0(sp)
        stw   r1,   8(sp)
  28:	d8400215 	stw	at,8(sp)
        stw   r2,  12(sp)
  2c:	d8800315 	stw	r2,12(sp)
        stw   r3,  16(sp)
  30:	d8c00415 	stw	r3,16(sp)
        stw   r4,  20(sp)
  34:	d9000515 	stw	r4,20(sp)
        stw   r5,  24(sp)
  38:	d9400615 	stw	r5,24(sp)
        stw   r6,  28(sp)
  3c:	d9800715 	stw	r6,28(sp)
        stw   r7,  32(sp)
  40:	d9c00815 	stw	r7,32(sp)
        rdctl r5, estatus   /* Read early to avoid usage stall */
  44:	000b307a 	rdctl	r5,estatus
        stw   r8,  36(sp)
  48:	da000915 	stw	r8,36(sp)
        stw   r9,  40(sp)
  4c:	da400a15 	stw	r9,40(sp)
        stw   r10, 44(sp)
  50:	da800b15 	stw	r10,44(sp)
        stw   r11, 48(sp)
  54:	dac00c15 	stw	r11,48(sp)
        stw   r12, 52(sp)
  58:	db000d15 	stw	r12,52(sp)
        stw   r13, 56(sp)
  5c:	db400e15 	stw	r13,56(sp)
        stw   r14, 60(sp)
  60:	db800f15 	stw	r14,60(sp)
        stw   r15, 64(sp)
  64:	dbc01015 	stw	r15,64(sp)
        /*
         * ea-4 contains the address of the instruction being executed
         * when the exception occured. For interrupt exceptions, we will
         * will be re-issue the isntruction. Store it in 72(sp)
         */
        stw   r5,  68(sp)  /* estatus */
  68:	d9401115 	stw	r5,68(sp)
        addi  r15, ea, -4  /* instruction that caused exception */
  6c:	ebffff04 	addi	r15,ea,-4
        stw   r15,  72(sp)
  70:	dbc01215 	stw	r15,72(sp)
#else
        /*
         * Test to see if the exception was a software exception or caused 
         * by an external interrupt, and vector accordingly.
         */
        rdctl r4, ipending
  74:	0009313a 	rdctl	r4,ipending
        andi  r2, r5, 1
  78:	2880004c 	andi	r2,r5,1
        beq   r2, zero, .Lnot_irq
  7c:	10000326 	beq	r2,zero,8c <alt_exception+0x6c>
        beq   r4, zero, .Lnot_irq
  80:	20000226 	beq	r4,zero,8c <alt_exception+0x6c>
        /*
         * Now that all necessary registers have been preserved, call 
         * alt_irq_handler() to process the interrupts.
         */

        call alt_irq_handler
  84:	00000fc0 	call	fc <alt_irq_handler>

        .section .exceptions.irqreturn, "xa"

        br    .Lexception_exit
  88:	00000706 	br	a8 <alt_exception+0x88>
         * upon completion, so we write ea (address of instruction *after*
         * the one where the exception occured) into 72(sp). The actual
         * instruction that caused the exception is written in r2, which these
         * handlers will utilize.
         */
        stw ea, 72(sp) /* EA is PC+4 so will skip over instruction causing exception */
  8c:	df401215 	stw	ea,72(sp)
.Lunknown_16bit:
        addi.n r4, r4, 2 /* Need PC+2 to skip over instruction causing exception */
        stw r4, 72(sp)

#else /* CDX is not Enabled and all instructions are 32bits */
        ldw r2, -4(ea) /* Instruction value that caused exception */
  90:	e8bfff17 	ldw	r2,-4(ea)
         * debugger is present) or go into an infinite loop since the
         * handling behavior is undefined; in that case we will not return here.
         */

        /* Load exception-causing address as first argument (r4) */
        addi   r4, ea, -4
  94:	e93fff04 	addi	r4,ea,-4

        /* Call the instruction-exception entry */
        call   alt_instruction_exception_entry
  98:	00001d00 	call	1d0 <alt_instruction_exception_entry>
         * instruction
         *
         * Return code was 0: Skip. The instruction after the exception is
         * already stored in 72(sp).
         */
        bne   r2, r0, .Lexception_exit
  9c:	1000021e 	bne	r2,zero,a8 <alt_exception+0x88>

        /*
         * Otherwise, modify 72(sp) to re-issue the instruction that caused the
         * exception.
         */
        addi  r15, ea, -4  /* instruction that caused exception */
  a0:	ebffff04 	addi	r15,ea,-4
        stw   r15,  72(sp)
  a4:	dbc01215 	stw	r15,72(sp)
        /* 
         * Restore the saved registers, so that all general purpose registers 
         * have been restored to their state at the time the interrupt occured.
         */

        ldw   r5,  68(sp)
  a8:	d9401117 	ldw	r5,68(sp)
        ldw   ea,  72(sp)  /* This becomes the PC once eret is executed */
  ac:	df401217 	ldw	ea,72(sp)
        ldw   ra,   0(sp)
  b0:	dfc00017 	ldw	ra,0(sp)

        wrctl estatus, r5
  b4:	2801707a 	wrctl	estatus,r5

        ldw   r1,   8(sp)
  b8:	d8400217 	ldw	at,8(sp)
        ldw   r2,  12(sp)
  bc:	d8800317 	ldw	r2,12(sp)
        ldw   r3,  16(sp)
  c0:	d8c00417 	ldw	r3,16(sp)
        ldw   r4,  20(sp)
  c4:	d9000517 	ldw	r4,20(sp)
        ldw   r5,  24(sp)
  c8:	d9400617 	ldw	r5,24(sp)
        ldw   r6,  28(sp)
  cc:	d9800717 	ldw	r6,28(sp)
        ldw   r7,  32(sp)
  d0:	d9c00817 	ldw	r7,32(sp)

#if defined(ALT_EXCEPTION_STACK) && defined(ALT_STACK_CHECK)
        ldw   et, %gprel(alt_exception_old_stack_limit)(gp)
#endif

        ldw   r8,  36(sp)
  d4:	da000917 	ldw	r8,36(sp)
        ldw   r9,  40(sp)
  d8:	da400a17 	ldw	r9,40(sp)
        ldw   r10, 44(sp)
  dc:	da800b17 	ldw	r10,44(sp)
        ldw   r11, 48(sp)
  e0:	dac00c17 	ldw	r11,48(sp)
        ldw   r12, 52(sp)
  e4:	db000d17 	ldw	r12,52(sp)
        ldw   r13, 56(sp)
  e8:	db400e17 	ldw	r13,56(sp)
        ldw   r14, 60(sp)
  ec:	db800f17 	ldw	r14,60(sp)
        ldw   r15, 64(sp)
  f0:	dbc01017 	ldw	r15,64(sp)
        stw   et, %gprel(alt_stack_limit_value)(gp)
        stw   zero, %gprel(alt_exception_old_stack_limit)(gp)
#endif /* ALT_STACK_CHECK */
        ldw   sp,  76(sp)
#else /* ALT_EXCEPTION_STACK disabled */
        addi  sp, sp, 76
  f4:	dec01304 	addi	sp,sp,76

        /*
         * Return to the interrupted instruction.
         */

        eret
  f8:	ef80083a 	eret

000000fc <alt_irq_handler>:
 * instruction is present if the macro ALT_CI_INTERRUPT_VECTOR defined.
 */

void alt_irq_handler (void) __attribute__ ((section (".exceptions")));
void alt_irq_handler (void)
{
  fc:	defff904 	addi	sp,sp,-28
 100:	dfc00615 	stw	ra,24(sp)
 104:	df000515 	stw	fp,20(sp)
 108:	df000504 	addi	fp,sp,20
  
  /*
   * Notify the operating system that we are at interrupt level.
   */ 
  
  ALT_OS_INT_ENTER();
 10c:	0001883a 	nop
#ifndef NIOS2_EIC_PRESENT
static ALT_INLINE alt_u32 ALT_ALWAYS_INLINE alt_irq_pending (void)
{
  alt_u32 active;

  NIOS2_READ_IPENDING (active);
 110:	0005313a 	rdctl	r2,ipending
 114:	e0bffe15 	stw	r2,-8(fp)

  return active;
 118:	e0bffe17 	ldw	r2,-8(fp)
   * Consider the case where the high priority interupt is asserted during
   * the interrupt entry sequence for a lower priority interrupt to see why
   * this is the case.
   */

  active = alt_irq_pending ();
 11c:	e0bffb15 	stw	r2,-20(fp)

  do
  {
    i = 0;
 120:	e03ffd15 	stw	zero,-12(fp)
    mask = 1;
 124:	00800044 	movi	r2,1
 128:	e0bffc15 	stw	r2,-16(fp)
     * called to clear the interrupt condition.
     */

    do
    {
      if (active & mask)
 12c:	e0fffb17 	ldw	r3,-20(fp)
 130:	e0bffc17 	ldw	r2,-16(fp)
 134:	1884703a 	and	r2,r3,r2
 138:	10001426 	beq	r2,zero,18c <alt_irq_handler+0x90>
      { 
#ifdef ALT_ENHANCED_INTERRUPT_API_PRESENT
        alt_irq[i].handler(alt_irq[i].context); 
 13c:	00800074 	movhi	r2,1
 140:	1097c404 	addi	r2,r2,24336
 144:	e0fffd17 	ldw	r3,-12(fp)
 148:	180690fa 	slli	r3,r3,3
 14c:	10c5883a 	add	r2,r2,r3
 150:	10c00017 	ldw	r3,0(r2)
 154:	00800074 	movhi	r2,1
 158:	1097c404 	addi	r2,r2,24336
 15c:	e13ffd17 	ldw	r4,-12(fp)
 160:	200890fa 	slli	r4,r4,3
 164:	1105883a 	add	r2,r2,r4
 168:	10800104 	addi	r2,r2,4
 16c:	10800017 	ldw	r2,0(r2)
 170:	1009883a 	mov	r4,r2
 174:	183ee83a 	callr	r3
#else
        alt_irq[i].handler(alt_irq[i].context, i); 
#endif
        break;
 178:	0001883a 	nop
#ifndef NIOS2_EIC_PRESENT
static ALT_INLINE alt_u32 ALT_ALWAYS_INLINE alt_irq_pending (void)
{
  alt_u32 active;

  NIOS2_READ_IPENDING (active);
 17c:	0005313a 	rdctl	r2,ipending
 180:	e0bfff15 	stw	r2,-4(fp)

  return active;
 184:	e0bfff17 	ldw	r2,-4(fp)
 188:	00000706 	br	1a8 <alt_irq_handler+0xac>
      }
      mask <<= 1;
 18c:	e0bffc17 	ldw	r2,-16(fp)
 190:	1085883a 	add	r2,r2,r2
 194:	e0bffc15 	stw	r2,-16(fp)
      i++;
 198:	e0bffd17 	ldw	r2,-12(fp)
 19c:	10800044 	addi	r2,r2,1
 1a0:	e0bffd15 	stw	r2,-12(fp)

    } while (1);
 1a4:	003fe106 	br	12c <alt_irq_handler+0x30>

    active = alt_irq_pending ();
 1a8:	e0bffb15 	stw	r2,-20(fp)
    
  } while (active);
 1ac:	e0bffb17 	ldw	r2,-20(fp)
 1b0:	103fdb1e 	bne	r2,zero,120 <alt_irq_handler+0x24>

  /*
   * Notify the operating system that interrupt processing is complete.
   */ 

  ALT_OS_INT_EXIT();
 1b4:	0001883a 	nop
}
 1b8:	0001883a 	nop
 1bc:	e037883a 	mov	sp,fp
 1c0:	dfc00117 	ldw	ra,4(sp)
 1c4:	df000017 	ldw	fp,0(sp)
 1c8:	dec00204 	addi	sp,sp,8
 1cc:	f800283a 	ret

000001d0 <alt_instruction_exception_entry>:
 * that handler if it has been registered. Absent a handler, it will
 * break break or hang as discussed below.
 */
int 
alt_instruction_exception_entry (alt_u32 exception_pc)
{
 1d0:	defffb04 	addi	sp,sp,-20
 1d4:	dfc00415 	stw	ra,16(sp)
 1d8:	df000315 	stw	fp,12(sp)
 1dc:	df000304 	addi	fp,sp,12
 1e0:	e13fff15 	stw	r4,-4(fp)
 * NIOS2_EXCEPTION_CAUSE_NOT_PRESENT. Your handling routine should
 * check the validity of the cause argument before proceeding.
 */
#ifdef NIOS2_HAS_EXTRA_EXCEPTION_INFO
  /* Get exception cause & "badaddr" */
  NIOS2_READ_EXCEPTION(cause);
 1e4:	000531fa 	rdctl	r2,exception
 1e8:	e0bffd15 	stw	r2,-12(fp)
  cause = ( (cause & NIOS2_EXCEPTION_REG_CAUSE_MASK) >>
 1ec:	e0bffd17 	ldw	r2,-12(fp)
 1f0:	10801f0c 	andi	r2,r2,124
 1f4:	1004d0ba 	srli	r2,r2,2
 1f8:	e0bffd15 	stw	r2,-12(fp)
              NIOS2_EXCEPTION_REG_CAUSE_OFST );

  NIOS2_READ_BADADDR(badaddr);
 1fc:	0005333a 	rdctl	r2,badaddr
 200:	e0bffe15 	stw	r2,-8(fp)
#else
  cause = NIOS2_EXCEPTION_CAUSE_NOT_PRESENT;
  badaddr = 0;
#endif /* NIOS2_HAS_EXTRA_EXCEPTION_INFO */

  if(alt_instruction_exception_handler) {
 204:	d0a6e417 	ldw	r2,-25712(gp)
 208:	10000726 	beq	r2,zero,228 <alt_instruction_exception_entry+0x58>
     * Call handler. Its return value indicates whether the exception-causing
     * instruction should be re-issued. The code that called us,
     * alt_eceptions_entry.S, will look at this value and adjust the ea
     * register as necessary
     */
    return alt_instruction_exception_handler(cause, exception_pc, badaddr);
 20c:	d0a6e417 	ldw	r2,-25712(gp)
 210:	e0fffd17 	ldw	r3,-12(fp)
 214:	e1bffe17 	ldw	r6,-8(fp)
 218:	e17fff17 	ldw	r5,-4(fp)
 21c:	1809883a 	mov	r4,r3
 220:	103ee83a 	callr	r2
 224:	00000206 	br	230 <alt_instruction_exception_entry+0x60>
   *    (a peripheral which negates its interrupt output before its
   *    interrupt handler has been executed will cause spurious interrupts)
   */
  else {
#ifdef NIOS2_HAS_DEBUG_STUB
    NIOS2_BREAK();
 228:	003da03a 	break	0
      ;
#endif /* NIOS2_HAS_DEBUG_STUB */
  }

  /* We should not get here. Remove compiler warning. */
  return NIOS2_EXCEPTION_RETURN_REISSUE_INST;
 22c:	0005883a 	mov	r2,zero
}
 230:	e037883a 	mov	sp,fp
 234:	dfc00117 	ldw	ra,4(sp)
 238:	df000017 	ldw	fp,0(sp)
 23c:	dec00204 	addi	sp,sp,8
 240:	f800283a 	ret

Disassembly of section .text:

00000244 <_start>:

    /*
     * Now that the caches are initialized, set up the stack pointer and global pointer.
     * The values provided by the linker are assumed to be correctly aligned.
     */
    movhi sp, %hi(__alt_stack_pointer)
     244:	06c04034 	movhi	sp,256
    ori sp, sp, %lo(__alt_stack_pointer)
     248:	dec00014 	ori	sp,sp,0
    movhi gp, %hi(_gp)
     24c:	06800074 	movhi	gp,1
    ori gp, gp, %lo(_gp)
     250:	d6b0d514 	ori	gp,gp,50004
 */
#ifndef ALT_SIM_OPTIMIZE
    /* Log that the BSS is about to be cleared. */
    ALT_LOG_PUTS(alt_log_msg_bss)

    movhi r2, %hi(__bss_start)
     254:	00800074 	movhi	r2,1
    ori r2, r2, %lo(__bss_start)
     258:	1097a014 	ori	r2,r2,24192

    movhi r3, %hi(__bss_end)
     25c:	00c00074 	movhi	r3,1
    ori r3, r3, %lo(__bss_end)
     260:	18d80414 	ori	r3,r3,24592

    beq r2, r3, 1f
     264:	10c00326 	beq	r2,r3,274 <_start+0x30>

0:
    stw zero, (r2)
     268:	10000015 	stw	zero,0(r2)
    addi r2, r2, 4
     26c:	10800104 	addi	r2,r2,4
    bltu r2, r3, 0b
     270:	10fffd36 	bltu	r2,r3,268 <_start+0x24>
     * section aren't defined until alt_load() has been called).
     */
    mov   et, zero
#endif

    call alt_load
     274:	000fa1c0 	call	fa1c <alt_load>

    /* Log that alt_main is about to be called. */
    ALT_LOG_PUTS(alt_log_msg_alt_main)

    /* Call the C entry point. It should never return. */
    call alt_main
     278:	000fbb00 	call	fbb0 <alt_main>

0000027c <alt_after_alt_main>:

    /* Wait in infinite loop in case alt_main does return. */
alt_after_alt_main:
    br alt_after_alt_main
     27c:	003fff06 	br	27c <alt_after_alt_main>

00000280 <init_camera>:
#include <stdio.h>
#include "i2c.h"
#include "camera.h"
#include "mt9d112.h"

void init_camera() {
     280:	defffd04 	addi	sp,sp,-12
     284:	dfc00215 	stw	ra,8(sp)
     288:	df000115 	stw	fp,4(sp)
     28c:	df000104 	addi	fp,sp,4
	int i;
	IOWR_8DIRECT(I2C_CTRL_BASE,I2C_PRESCALE_REG,2); // Set prescaler
     290:	00c00084 	movi	r3,2
     294:	00804034 	movhi	r2,256
     298:	10842744 	addi	r2,r2,4253
     29c:	10c00025 	stbio	r3,0(r2)
	IOWR_8DIRECT(CAM_CTRL_BASE,CAM_CONTROL_REG,CAM_Reset);
     2a0:	00c00044 	movi	r3,1
     2a4:	00804034 	movhi	r2,256
     2a8:	10841304 	addi	r2,r2,4172
     2ac:	10c00025 	stbio	r3,0(r2)
	for (i=0; i < 1000000 ; i++)
     2b0:	e03fff15 	stw	zero,-4(fp)
     2b4:	00000406 	br	2c8 <init_camera+0x48>
		asm volatile ("nop");
     2b8:	0001883a 	nop

void init_camera() {
	int i;
	IOWR_8DIRECT(I2C_CTRL_BASE,I2C_PRESCALE_REG,2); // Set prescaler
	IOWR_8DIRECT(CAM_CTRL_BASE,CAM_CONTROL_REG,CAM_Reset);
	for (i=0; i < 1000000 ; i++)
     2bc:	e0bfff17 	ldw	r2,-4(fp)
     2c0:	10800044 	addi	r2,r2,1
     2c4:	e0bfff15 	stw	r2,-4(fp)
     2c8:	e0ffff17 	ldw	r3,-4(fp)
     2cc:	008003f4 	movhi	r2,15
     2d0:	10908fc4 	addi	r2,r2,16959
     2d4:	10fff80e 	bge	r2,r3,2b8 <init_camera+0x38>
		asm volatile ("nop");
	IOWR_8DIRECT(CAM_CTRL_BASE,CAM_CONTROL_REG,0);
     2d8:	0007883a 	mov	r3,zero
     2dc:	00804034 	movhi	r2,256
     2e0:	10841304 	addi	r2,r2,4172
     2e4:	10c00025 	stbio	r3,0(r2)
	for (i=0; i < 1000000 ; i++)
     2e8:	e03fff15 	stw	zero,-4(fp)
     2ec:	00000406 	br	300 <init_camera+0x80>
		asm volatile ("nop");
     2f0:	0001883a 	nop
	IOWR_8DIRECT(I2C_CTRL_BASE,I2C_PRESCALE_REG,2); // Set prescaler
	IOWR_8DIRECT(CAM_CTRL_BASE,CAM_CONTROL_REG,CAM_Reset);
	for (i=0; i < 1000000 ; i++)
		asm volatile ("nop");
	IOWR_8DIRECT(CAM_CTRL_BASE,CAM_CONTROL_REG,0);
	for (i=0; i < 1000000 ; i++)
     2f4:	e0bfff17 	ldw	r2,-4(fp)
     2f8:	10800044 	addi	r2,r2,1
     2fc:	e0bfff15 	stw	r2,-4(fp)
     300:	e0ffff17 	ldw	r3,-4(fp)
     304:	008003f4 	movhi	r2,15
     308:	10908fc4 	addi	r2,r2,16959
     30c:	10fff80e 	bge	r2,r3,2f0 <init_camera+0x70>
		asm volatile ("nop");
	i2c_short_write(CAM_I2C_ID,REG_MT9D112_MCU_BOOT,0x0001);
     310:	01800044 	movi	r6,1
     314:	014ce184 	movi	r5,13190
     318:	01001e04 	movi	r4,120
     31c:	0000e180 	call	e18 <i2c_short_write>
	i2c_short_write(CAM_I2C_ID,REG_MT9D112_MCU_BOOT,0x0000);
     320:	000d883a 	mov	r6,zero
     324:	014ce184 	movi	r5,13190
     328:	01001e04 	movi	r4,120
     32c:	0000e180 	call	e18 <i2c_short_write>
	for (i=0; i < 1000000 ; i++)
     330:	e03fff15 	stw	zero,-4(fp)
     334:	00000406 	br	348 <init_camera+0xc8>
		asm volatile ("nop");
     338:	0001883a 	nop
	IOWR_8DIRECT(CAM_CTRL_BASE,CAM_CONTROL_REG,0);
	for (i=0; i < 1000000 ; i++)
		asm volatile ("nop");
	i2c_short_write(CAM_I2C_ID,REG_MT9D112_MCU_BOOT,0x0001);
	i2c_short_write(CAM_I2C_ID,REG_MT9D112_MCU_BOOT,0x0000);
	for (i=0; i < 1000000 ; i++)
     33c:	e0bfff17 	ldw	r2,-4(fp)
     340:	10800044 	addi	r2,r2,1
     344:	e0bfff15 	stw	r2,-4(fp)
     348:	e0ffff17 	ldw	r3,-4(fp)
     34c:	008003f4 	movhi	r2,15
     350:	10908fc4 	addi	r2,r2,16959
     354:	10fff80e 	bge	r2,r3,338 <init_camera+0xb8>
		asm volatile ("nop");
	i2c_short_write(CAM_I2C_ID,REG_MT9D112_SENSOR_RESET,0x00C4);
     358:	01803104 	movi	r6,196
     35c:	014c0684 	movi	r5,12314
     360:	01001e04 	movi	r4,120
     364:	0000e180 	call	e18 <i2c_short_write>
	i2c_short_write(CAM_I2C_ID,REG_MT9D112_STANDBY_CONTROL,0x0008);
     368:	01800204 	movi	r6,8
     36c:	014c8084 	movi	r5,12802
     370:	01001e04 	movi	r4,120
     374:	0000e180 	call	e18 <i2c_short_write>
	i2c_short_write(CAM_I2C_ID,0x33F4,0x031D);
     378:	0180c744 	movi	r6,797
     37c:	014cfd04 	movi	r5,13300
     380:	01001e04 	movi	r4,120
     384:	0000e180 	call	e18 <i2c_short_write>
	for (i=0; i < 100000 ; i++)
     388:	e03fff15 	stw	zero,-4(fp)
     38c:	00000406 	br	3a0 <init_camera+0x120>
		asm volatile ("nop");
     390:	0001883a 	nop
	for (i=0; i < 1000000 ; i++)
		asm volatile ("nop");
	i2c_short_write(CAM_I2C_ID,REG_MT9D112_SENSOR_RESET,0x00C4);
	i2c_short_write(CAM_I2C_ID,REG_MT9D112_STANDBY_CONTROL,0x0008);
	i2c_short_write(CAM_I2C_ID,0x33F4,0x031D);
	for (i=0; i < 100000 ; i++)
     394:	e0bfff17 	ldw	r2,-4(fp)
     398:	10800044 	addi	r2,r2,1
     39c:	e0bfff15 	stw	r2,-4(fp)
     3a0:	e0ffff17 	ldw	r3,-4(fp)
     3a4:	008000b4 	movhi	r2,2
     3a8:	10a1a7c4 	addi	r2,r2,-31073
     3ac:	10fff80e 	bge	r2,r3,390 <init_camera+0x110>
		asm volatile ("nop");
	/* enable PLL */
	i2c_short_write(CAM_I2C_ID,REG_MT9D112_PLL_CLK_IN_CONTROL,0x8F09);
     3b0:	01a3c254 	movui	r6,36617
     3b4:	014d0784 	movi	r5,13342
     3b8:	01001e04 	movi	r4,120
     3bc:	0000e180 	call	e18 <i2c_short_write>
	i2c_short_write(CAM_I2C_ID,REG_MT9D112_PLL_DIVIDERS_1,0x0150);
     3c0:	01805404 	movi	r6,336
     3c4:	014d0704 	movi	r5,13340
     3c8:	01001e04 	movi	r4,120
     3cc:	0000e180 	call	e18 <i2c_short_write>
	i2c_short_write(CAM_I2C_ID,REG_MT9D112_PLL_CLK_IN_CONTROL,0x8F09);
     3d0:	01a3c254 	movui	r6,36617
     3d4:	014d0784 	movi	r5,13342
     3d8:	01001e04 	movi	r4,120
     3dc:	0000e180 	call	e18 <i2c_short_write>
	for (i=0; i < 100000 ; i++)
     3e0:	e03fff15 	stw	zero,-4(fp)
     3e4:	00000406 	br	3f8 <init_camera+0x178>
		asm volatile ("nop");
     3e8:	0001883a 	nop
		asm volatile ("nop");
	/* enable PLL */
	i2c_short_write(CAM_I2C_ID,REG_MT9D112_PLL_CLK_IN_CONTROL,0x8F09);
	i2c_short_write(CAM_I2C_ID,REG_MT9D112_PLL_DIVIDERS_1,0x0150);
	i2c_short_write(CAM_I2C_ID,REG_MT9D112_PLL_CLK_IN_CONTROL,0x8F09);
	for (i=0; i < 100000 ; i++)
     3ec:	e0bfff17 	ldw	r2,-4(fp)
     3f0:	10800044 	addi	r2,r2,1
     3f4:	e0bfff15 	stw	r2,-4(fp)
     3f8:	e0ffff17 	ldw	r3,-4(fp)
     3fc:	008000b4 	movhi	r2,2
     400:	10a1a7c4 	addi	r2,r2,-31073
     404:	10fff80e 	bge	r2,r3,3e8 <init_camera+0x168>
		asm volatile ("nop");
	i2c_short_write(CAM_I2C_ID,REG_MT9D112_PLL_CLK_IN_CONTROL,0x8F08);
     408:	01a3c214 	movui	r6,36616
     40c:	014d0784 	movi	r5,13342
     410:	01001e04 	movi	r4,120
     414:	0000e180 	call	e18 <i2c_short_write>
	/* Set regs */
	for (i = 0 ; i < (sizeof(preview_snapshot_mode_reg_settings_array)/4); i++) {
     418:	e03fff15 	stw	zero,-4(fp)
     41c:	00001806 	br	480 <init_camera+0x200>
		i2c_short_write(CAM_I2C_ID,
				preview_snapshot_mode_reg_settings_array[i][0],
     420:	00800074 	movhi	r2,1
     424:	10883c04 	addi	r2,r2,8432
     428:	e0ffff17 	ldw	r3,-4(fp)
     42c:	18c7883a 	add	r3,r3,r3
     430:	18c7883a 	add	r3,r3,r3
     434:	10c5883a 	add	r2,r2,r3
     438:	1080000b 	ldhu	r2,0(r2)
	for (i=0; i < 100000 ; i++)
		asm volatile ("nop");
	i2c_short_write(CAM_I2C_ID,REG_MT9D112_PLL_CLK_IN_CONTROL,0x8F08);
	/* Set regs */
	for (i = 0 ; i < (sizeof(preview_snapshot_mode_reg_settings_array)/4); i++) {
		i2c_short_write(CAM_I2C_ID,
     43c:	113fffcc 	andi	r4,r2,65535
				preview_snapshot_mode_reg_settings_array[i][0],
				preview_snapshot_mode_reg_settings_array[i][1]);
     440:	00800074 	movhi	r2,1
     444:	10883c04 	addi	r2,r2,8432
     448:	e0ffff17 	ldw	r3,-4(fp)
     44c:	18c7883a 	add	r3,r3,r3
     450:	18c7883a 	add	r3,r3,r3
     454:	10c5883a 	add	r2,r2,r3
     458:	10800084 	addi	r2,r2,2
     45c:	1080000b 	ldhu	r2,0(r2)
	for (i=0; i < 100000 ; i++)
		asm volatile ("nop");
	i2c_short_write(CAM_I2C_ID,REG_MT9D112_PLL_CLK_IN_CONTROL,0x8F08);
	/* Set regs */
	for (i = 0 ; i < (sizeof(preview_snapshot_mode_reg_settings_array)/4); i++) {
		i2c_short_write(CAM_I2C_ID,
     460:	10bfffcc 	andi	r2,r2,65535
     464:	100d883a 	mov	r6,r2
     468:	200b883a 	mov	r5,r4
     46c:	01001e04 	movi	r4,120
     470:	0000e180 	call	e18 <i2c_short_write>
	i2c_short_write(CAM_I2C_ID,REG_MT9D112_PLL_CLK_IN_CONTROL,0x8F09);
	for (i=0; i < 100000 ; i++)
		asm volatile ("nop");
	i2c_short_write(CAM_I2C_ID,REG_MT9D112_PLL_CLK_IN_CONTROL,0x8F08);
	/* Set regs */
	for (i = 0 ; i < (sizeof(preview_snapshot_mode_reg_settings_array)/4); i++) {
     474:	e0bfff17 	ldw	r2,-4(fp)
     478:	10800044 	addi	r2,r2,1
     47c:	e0bfff15 	stw	r2,-4(fp)
     480:	e0bfff17 	ldw	r2,-4(fp)
     484:	108011b0 	cmpltui	r2,r2,70
     488:	103fe51e 	bne	r2,zero,420 <init_camera+0x1a0>
		i2c_short_write(CAM_I2C_ID,
				preview_snapshot_mode_reg_settings_array[i][0],
				preview_snapshot_mode_reg_settings_array[i][1]);
	}
	for (i = 0 ; i < (sizeof(noise_reduction_reg_settings_array)/4); i++) {
     48c:	e03fff15 	stw	zero,-4(fp)
     490:	00001806 	br	4f4 <init_camera+0x274>
		i2c_short_write(CAM_I2C_ID,
				noise_reduction_reg_settings_array[i][0],
     494:	00800074 	movhi	r2,1
     498:	10888204 	addi	r2,r2,8712
     49c:	e0ffff17 	ldw	r3,-4(fp)
     4a0:	18c7883a 	add	r3,r3,r3
     4a4:	18c7883a 	add	r3,r3,r3
     4a8:	10c5883a 	add	r2,r2,r3
     4ac:	1080000b 	ldhu	r2,0(r2)
		i2c_short_write(CAM_I2C_ID,
				preview_snapshot_mode_reg_settings_array[i][0],
				preview_snapshot_mode_reg_settings_array[i][1]);
	}
	for (i = 0 ; i < (sizeof(noise_reduction_reg_settings_array)/4); i++) {
		i2c_short_write(CAM_I2C_ID,
     4b0:	113fffcc 	andi	r4,r2,65535
				noise_reduction_reg_settings_array[i][0],
				noise_reduction_reg_settings_array[i][1]);
     4b4:	00800074 	movhi	r2,1
     4b8:	10888204 	addi	r2,r2,8712
     4bc:	e0ffff17 	ldw	r3,-4(fp)
     4c0:	18c7883a 	add	r3,r3,r3
     4c4:	18c7883a 	add	r3,r3,r3
     4c8:	10c5883a 	add	r2,r2,r3
     4cc:	10800084 	addi	r2,r2,2
     4d0:	1080000b 	ldhu	r2,0(r2)
		i2c_short_write(CAM_I2C_ID,
				preview_snapshot_mode_reg_settings_array[i][0],
				preview_snapshot_mode_reg_settings_array[i][1]);
	}
	for (i = 0 ; i < (sizeof(noise_reduction_reg_settings_array)/4); i++) {
		i2c_short_write(CAM_I2C_ID,
     4d4:	10bfffcc 	andi	r2,r2,65535
     4d8:	100d883a 	mov	r6,r2
     4dc:	200b883a 	mov	r5,r4
     4e0:	01001e04 	movi	r4,120
     4e4:	0000e180 	call	e18 <i2c_short_write>
	for (i = 0 ; i < (sizeof(preview_snapshot_mode_reg_settings_array)/4); i++) {
		i2c_short_write(CAM_I2C_ID,
				preview_snapshot_mode_reg_settings_array[i][0],
				preview_snapshot_mode_reg_settings_array[i][1]);
	}
	for (i = 0 ; i < (sizeof(noise_reduction_reg_settings_array)/4); i++) {
     4e8:	e0bfff17 	ldw	r2,-4(fp)
     4ec:	10800044 	addi	r2,r2,1
     4f0:	e0bfff15 	stw	r2,-4(fp)
     4f4:	e0bfff17 	ldw	r2,-4(fp)
     4f8:	10801430 	cmpltui	r2,r2,80
     4fc:	103fe51e 	bne	r2,zero,494 <init_camera+0x214>
		i2c_short_write(CAM_I2C_ID,
				noise_reduction_reg_settings_array[i][0],
				noise_reduction_reg_settings_array[i][1]);
	}
	i2c_short_write(CAM_I2C_ID,0x35A4,0x0593);
     500:	018164c4 	movi	r6,1427
     504:	014d6904 	movi	r5,13732
     508:	01001e04 	movi	r4,120
     50c:	0000e180 	call	e18 <i2c_short_write>
// sequencer table
	i2c_short_write(CAM_I2C_ID,0x338C,0x2799);
     510:	0189e644 	movi	r6,10137
     514:	014ce304 	movi	r5,13196
     518:	01001e04 	movi	r4,120
     51c:	0000e180 	call	e18 <i2c_short_write>
	i2c_short_write(CAM_I2C_ID,0x3390,0x6440);
     520:	01991004 	movi	r6,25664
     524:	014ce404 	movi	r5,13200
     528:	01001e04 	movi	r4,120
     52c:	0000e180 	call	e18 <i2c_short_write>
	for (i=0; i < 100000 ; i++)
     530:	e03fff15 	stw	zero,-4(fp)
     534:	00000406 	br	548 <init_camera+0x2c8>
		asm volatile ("nop");
     538:	0001883a 	nop
	}
	i2c_short_write(CAM_I2C_ID,0x35A4,0x0593);
// sequencer table
	i2c_short_write(CAM_I2C_ID,0x338C,0x2799);
	i2c_short_write(CAM_I2C_ID,0x3390,0x6440);
	for (i=0; i < 100000 ; i++)
     53c:	e0bfff17 	ldw	r2,-4(fp)
     540:	10800044 	addi	r2,r2,1
     544:	e0bfff15 	stw	r2,-4(fp)
     548:	e0ffff17 	ldw	r3,-4(fp)
     54c:	008000b4 	movhi	r2,2
     550:	10a1a7c4 	addi	r2,r2,-31073
     554:	10fff80e 	bge	r2,r3,538 <init_camera+0x2b8>
		asm volatile ("nop");
	i2c_short_write(CAM_I2C_ID,0x338C,0x279B);
     558:	0189e6c4 	movi	r6,10139
     55c:	014ce304 	movi	r5,13196
     560:	01001e04 	movi	r4,120
     564:	0000e180 	call	e18 <i2c_short_write>
	i2c_short_write(CAM_I2C_ID,0x3390,0x6440);
     568:	01991004 	movi	r6,25664
     56c:	014ce404 	movi	r5,13200
     570:	01001e04 	movi	r4,120
     574:	0000e180 	call	e18 <i2c_short_write>
	for (i=0; i < 100000 ; i++)
     578:	e03fff15 	stw	zero,-4(fp)
     57c:	00000406 	br	590 <init_camera+0x310>
		asm volatile ("nop");
     580:	0001883a 	nop
	i2c_short_write(CAM_I2C_ID,0x3390,0x6440);
	for (i=0; i < 100000 ; i++)
		asm volatile ("nop");
	i2c_short_write(CAM_I2C_ID,0x338C,0x279B);
	i2c_short_write(CAM_I2C_ID,0x3390,0x6440);
	for (i=0; i < 100000 ; i++)
     584:	e0bfff17 	ldw	r2,-4(fp)
     588:	10800044 	addi	r2,r2,1
     58c:	e0bfff15 	stw	r2,-4(fp)
     590:	e0ffff17 	ldw	r3,-4(fp)
     594:	008000b4 	movhi	r2,2
     598:	10a1a7c4 	addi	r2,r2,-31073
     59c:	10fff80e 	bge	r2,r3,580 <init_camera+0x300>
		asm volatile ("nop");
	i2c_short_write(CAM_I2C_ID,0x338C,0xA103);
     5a0:	01a840d4 	movui	r6,41219
     5a4:	014ce304 	movi	r5,13196
     5a8:	01001e04 	movi	r4,120
     5ac:	0000e180 	call	e18 <i2c_short_write>
	i2c_short_write(CAM_I2C_ID,0x3390,0x0005);
     5b0:	01800144 	movi	r6,5
     5b4:	014ce404 	movi	r5,13200
     5b8:	01001e04 	movi	r4,120
     5bc:	0000e180 	call	e18 <i2c_short_write>
	for (i=0; i < 100000 ; i++)
     5c0:	e03fff15 	stw	zero,-4(fp)
     5c4:	00000406 	br	5d8 <init_camera+0x358>
		asm volatile ("nop");
     5c8:	0001883a 	nop
	i2c_short_write(CAM_I2C_ID,0x3390,0x6440);
	for (i=0; i < 100000 ; i++)
		asm volatile ("nop");
	i2c_short_write(CAM_I2C_ID,0x338C,0xA103);
	i2c_short_write(CAM_I2C_ID,0x3390,0x0005);
	for (i=0; i < 100000 ; i++)
     5cc:	e0bfff17 	ldw	r2,-4(fp)
     5d0:	10800044 	addi	r2,r2,1
     5d4:	e0bfff15 	stw	r2,-4(fp)
     5d8:	e0ffff17 	ldw	r3,-4(fp)
     5dc:	008000b4 	movhi	r2,2
     5e0:	10a1a7c4 	addi	r2,r2,-31073
     5e4:	10fff80e 	bge	r2,r3,5c8 <init_camera+0x348>
		asm volatile ("nop");
	i2c_short_write(CAM_I2C_ID,0x338C,0xA103);
     5e8:	01a840d4 	movui	r6,41219
     5ec:	014ce304 	movi	r5,13196
     5f0:	01001e04 	movi	r4,120
     5f4:	0000e180 	call	e18 <i2c_short_write>
	i2c_short_write(CAM_I2C_ID,0x3390,0x0006);
     5f8:	01800184 	movi	r6,6
     5fc:	014ce404 	movi	r5,13200
     600:	01001e04 	movi	r4,120
     604:	0000e180 	call	e18 <i2c_short_write>
	for (i=0; i < 100000 ; i++)
     608:	e03fff15 	stw	zero,-4(fp)
     60c:	00000406 	br	620 <init_camera+0x3a0>
		asm volatile ("nop");
     610:	0001883a 	nop
	i2c_short_write(CAM_I2C_ID,0x3390,0x0005);
	for (i=0; i < 100000 ; i++)
		asm volatile ("nop");
	i2c_short_write(CAM_I2C_ID,0x338C,0xA103);
	i2c_short_write(CAM_I2C_ID,0x3390,0x0006);
	for (i=0; i < 100000 ; i++)
     614:	e0bfff17 	ldw	r2,-4(fp)
     618:	10800044 	addi	r2,r2,1
     61c:	e0bfff15 	stw	r2,-4(fp)
     620:	e0ffff17 	ldw	r3,-4(fp)
     624:	008000b4 	movhi	r2,2
     628:	10a1a7c4 	addi	r2,r2,-31073
     62c:	10fff80e 	bge	r2,r3,610 <init_camera+0x390>
		asm volatile ("nop");
	for (i = 0 ; i < (sizeof(lens_roll_off_tbl)/4); i++) {
     630:	e03fff15 	stw	zero,-4(fp)
     634:	00001806 	br	698 <init_camera+0x418>
		i2c_short_write(CAM_I2C_ID,
				lens_roll_off_tbl[i][0],
     638:	00800074 	movhi	r2,1
     63c:	1088d204 	addi	r2,r2,9032
     640:	e0ffff17 	ldw	r3,-4(fp)
     644:	18c7883a 	add	r3,r3,r3
     648:	18c7883a 	add	r3,r3,r3
     64c:	10c5883a 	add	r2,r2,r3
     650:	1080000b 	ldhu	r2,0(r2)
	i2c_short_write(CAM_I2C_ID,0x338C,0xA103);
	i2c_short_write(CAM_I2C_ID,0x3390,0x0006);
	for (i=0; i < 100000 ; i++)
		asm volatile ("nop");
	for (i = 0 ; i < (sizeof(lens_roll_off_tbl)/4); i++) {
		i2c_short_write(CAM_I2C_ID,
     654:	113fffcc 	andi	r4,r2,65535
				lens_roll_off_tbl[i][0],
				lens_roll_off_tbl[i][1]);
     658:	00800074 	movhi	r2,1
     65c:	1088d204 	addi	r2,r2,9032
     660:	e0ffff17 	ldw	r3,-4(fp)
     664:	18c7883a 	add	r3,r3,r3
     668:	18c7883a 	add	r3,r3,r3
     66c:	10c5883a 	add	r2,r2,r3
     670:	10800084 	addi	r2,r2,2
     674:	1080000b 	ldhu	r2,0(r2)
	i2c_short_write(CAM_I2C_ID,0x338C,0xA103);
	i2c_short_write(CAM_I2C_ID,0x3390,0x0006);
	for (i=0; i < 100000 ; i++)
		asm volatile ("nop");
	for (i = 0 ; i < (sizeof(lens_roll_off_tbl)/4); i++) {
		i2c_short_write(CAM_I2C_ID,
     678:	10bfffcc 	andi	r2,r2,65535
     67c:	100d883a 	mov	r6,r2
     680:	200b883a 	mov	r5,r4
     684:	01001e04 	movi	r4,120
     688:	0000e180 	call	e18 <i2c_short_write>
		asm volatile ("nop");
	i2c_short_write(CAM_I2C_ID,0x338C,0xA103);
	i2c_short_write(CAM_I2C_ID,0x3390,0x0006);
	for (i=0; i < 100000 ; i++)
		asm volatile ("nop");
	for (i = 0 ; i < (sizeof(lens_roll_off_tbl)/4); i++) {
     68c:	e0bfff17 	ldw	r2,-4(fp)
     690:	10800044 	addi	r2,r2,1
     694:	e0bfff15 	stw	r2,-4(fp)
     698:	e0bfff17 	ldw	r2,-4(fp)
     69c:	108012b0 	cmpltui	r2,r2,74
     6a0:	103fe51e 	bne	r2,zero,638 <init_camera+0x3b8>
		i2c_short_write(CAM_I2C_ID,
				lens_roll_off_tbl[i][0],
				lens_roll_off_tbl[i][1]);
	}
	for (i=0; i < 1000000 ; i++)
     6a4:	e03fff15 	stw	zero,-4(fp)
     6a8:	00000406 	br	6bc <init_camera+0x43c>
		asm volatile ("nop");
     6ac:	0001883a 	nop
	for (i = 0 ; i < (sizeof(lens_roll_off_tbl)/4); i++) {
		i2c_short_write(CAM_I2C_ID,
				lens_roll_off_tbl[i][0],
				lens_roll_off_tbl[i][1]);
	}
	for (i=0; i < 1000000 ; i++)
     6b0:	e0bfff17 	ldw	r2,-4(fp)
     6b4:	10800044 	addi	r2,r2,1
     6b8:	e0bfff15 	stw	r2,-4(fp)
     6bc:	e0ffff17 	ldw	r3,-4(fp)
     6c0:	008003f4 	movhi	r2,15
     6c4:	10908fc4 	addi	r2,r2,16959
     6c8:	10fff80e 	bge	r2,r3,6ac <init_camera+0x42c>
		asm volatile ("nop");
	i2c_short_write(CAM_I2C_ID,0x332E,0x0020);
     6cc:	01800804 	movi	r6,32
     6d0:	014ccb84 	movi	r5,13102
     6d4:	01001e04 	movi	r4,120
     6d8:	0000e180 	call	e18 <i2c_short_write>
	for (i=0; i < 1000000 ; i++)
     6dc:	e03fff15 	stw	zero,-4(fp)
     6e0:	00000406 	br	6f4 <init_camera+0x474>
		asm volatile ("nop");
     6e4:	0001883a 	nop
				lens_roll_off_tbl[i][1]);
	}
	for (i=0; i < 1000000 ; i++)
		asm volatile ("nop");
	i2c_short_write(CAM_I2C_ID,0x332E,0x0020);
	for (i=0; i < 1000000 ; i++)
     6e8:	e0bfff17 	ldw	r2,-4(fp)
     6ec:	10800044 	addi	r2,r2,1
     6f0:	e0bfff15 	stw	r2,-4(fp)
     6f4:	e0ffff17 	ldw	r3,-4(fp)
     6f8:	008003f4 	movhi	r2,15
     6fc:	10908fc4 	addi	r2,r2,16959
     700:	10fff80e 	bge	r2,r3,6e4 <init_camera+0x464>
		asm volatile ("nop");
	i2c_short_write(CAM_I2C_ID,0x3404,0x0022); /* set RGB565 mode */
     704:	01800884 	movi	r6,34
     708:	014d0104 	movi	r5,13316
     70c:	01001e04 	movi	r4,120
     710:	0000e180 	call	e18 <i2c_short_write>
	for (i=0; i < 1000000 ; i++)
     714:	e03fff15 	stw	zero,-4(fp)
     718:	00000406 	br	72c <init_camera+0x4ac>
		asm volatile ("nop");
     71c:	0001883a 	nop
		asm volatile ("nop");
	i2c_short_write(CAM_I2C_ID,0x332E,0x0020);
	for (i=0; i < 1000000 ; i++)
		asm volatile ("nop");
	i2c_short_write(CAM_I2C_ID,0x3404,0x0022); /* set RGB565 mode */
	for (i=0; i < 1000000 ; i++)
     720:	e0bfff17 	ldw	r2,-4(fp)
     724:	10800044 	addi	r2,r2,1
     728:	e0bfff15 	stw	r2,-4(fp)
     72c:	e0ffff17 	ldw	r3,-4(fp)
     730:	008003f4 	movhi	r2,15
     734:	10908fc4 	addi	r2,r2,16959
     738:	10fff80e 	bge	r2,r3,71c <init_camera+0x49c>
		asm volatile ("nop");
	i2c_short_write(CAM_I2C_ID,0x3040,0x0027); /* mirror */
     73c:	018009c4 	movi	r6,39
     740:	014c1004 	movi	r5,12352
     744:	01001e04 	movi	r4,120
     748:	0000e180 	call	e18 <i2c_short_write>
}
     74c:	0001883a 	nop
     750:	e037883a 	mov	sp,fp
     754:	dfc00117 	ldw	ra,4(sp)
     758:	df000017 	ldw	fp,0(sp)
     75c:	dec00204 	addi	sp,sp,8
     760:	f800283a 	ret

00000764 <cam_get_xsize>:

unsigned short cam_get_xsize(){
     764:	defffe04 	addi	sp,sp,-8
     768:	df000115 	stw	fp,4(sp)
     76c:	df000104 	addi	fp,sp,4
	unsigned char control_reg;
	do {
		control_reg = IORD_8DIRECT(CAM_CTRL_BASE,CAM_CONTROL_REG);
     770:	00804034 	movhi	r2,256
     774:	10841304 	addi	r2,r2,4172
     778:	10800023 	ldbuio	r2,0(r2)
     77c:	10803fcc 	andi	r2,r2,255
     780:	e0bfff05 	stb	r2,-4(fp)
	} while ((control_reg&CAM_Profile_valid)==0);
     784:	e0bfff03 	ldbu	r2,-4(fp)
     788:	1080010c 	andi	r2,r2,4
     78c:	103ff826 	beq	r2,zero,770 <cam_get_xsize+0xc>
	return IORD_16DIRECT(CAM_CTRL_BASE,CAM_BYTES_EACH_LINE_REG);
     790:	00804034 	movhi	r2,256
     794:	10841004 	addi	r2,r2,4160
     798:	1080002b 	ldhuio	r2,0(r2)
     79c:	10bfffcc 	andi	r2,r2,65535
}
     7a0:	e037883a 	mov	sp,fp
     7a4:	df000017 	ldw	fp,0(sp)
     7a8:	dec00104 	addi	sp,sp,4
     7ac:	f800283a 	ret

000007b0 <cam_get_ysize>:

unsigned short cam_get_ysize() {
     7b0:	defffe04 	addi	sp,sp,-8
     7b4:	df000115 	stw	fp,4(sp)
     7b8:	df000104 	addi	fp,sp,4
	unsigned char control_reg;
	do {
		control_reg = IORD_8DIRECT(CAM_CTRL_BASE,CAM_CONTROL_REG);
     7bc:	00804034 	movhi	r2,256
     7c0:	10841304 	addi	r2,r2,4172
     7c4:	10800023 	ldbuio	r2,0(r2)
     7c8:	10803fcc 	andi	r2,r2,255
     7cc:	e0bfff05 	stb	r2,-4(fp)
	} while ((control_reg&CAM_Profile_valid)==0);
     7d0:	e0bfff03 	ldbu	r2,-4(fp)
     7d4:	1080010c 	andi	r2,r2,4
     7d8:	103ff826 	beq	r2,zero,7bc <cam_get_ysize+0xc>
	return IORD_16DIRECT(CAM_CTRL_BASE,CAM_LINES_EACH_FRAME_REG);
     7dc:	00804034 	movhi	r2,256
     7e0:	10841104 	addi	r2,r2,4164
     7e4:	1080002b 	ldhuio	r2,0(r2)
     7e8:	10bfffcc 	andi	r2,r2,65535
}
     7ec:	e037883a 	mov	sp,fp
     7f0:	df000017 	ldw	fp,0(sp)
     7f4:	dec00104 	addi	sp,sp,4
     7f8:	f800283a 	ret

000007fc <cam_get_profiling>:

void cam_get_profiling() {
     7fc:	defffd04 	addi	sp,sp,-12
     800:	dfc00215 	stw	ra,8(sp)
     804:	df000115 	stw	fp,4(sp)
     808:	df000104 	addi	fp,sp,4
	unsigned char control_reg;
	do {
		control_reg = IORD_8DIRECT(CAM_CTRL_BASE,CAM_CONTROL_REG);
     80c:	00804034 	movhi	r2,256
     810:	10841304 	addi	r2,r2,4172
     814:	10800023 	ldbuio	r2,0(r2)
     818:	10803fcc 	andi	r2,r2,255
     81c:	e0bfff05 	stb	r2,-4(fp)
	} while ((control_reg&CAM_Profile_valid)==0);
     820:	e0bfff03 	ldbu	r2,-4(fp)
     824:	1080010c 	andi	r2,r2,4
     828:	103ff826 	beq	r2,zero,80c <cam_get_profiling+0x10>
	printf("Nr. of bytes each line    : %d\n",
     82c:	00804034 	movhi	r2,256
     830:	10841004 	addi	r2,r2,4160
     834:	1080002b 	ldhuio	r2,0(r2)
     838:	10bfffcc 	andi	r2,r2,65535
     83c:	100b883a 	mov	r5,r2
     840:	01000074 	movhi	r4,1
     844:	21091c04 	addi	r4,r4,9328
     848:	00035cc0 	call	35cc <printf>
			IORD_16DIRECT(CAM_CTRL_BASE,CAM_BYTES_EACH_LINE_REG));
	printf("Nr. of lines each frame   : %d\n",
     84c:	00804034 	movhi	r2,256
     850:	10841104 	addi	r2,r2,4164
     854:	1080002b 	ldhuio	r2,0(r2)
     858:	10bfffcc 	andi	r2,r2,65535
     85c:	100b883a 	mov	r5,r2
     860:	01000074 	movhi	r4,1
     864:	21092404 	addi	r4,r4,9360
     868:	00035cc0 	call	35cc <printf>
			IORD_16DIRECT(CAM_CTRL_BASE,CAM_LINES_EACH_FRAME_REG));
	printf("Nr. of frames each second : %d\n",
     86c:	00804034 	movhi	r2,256
     870:	10841204 	addi	r2,r2,4168
     874:	1080002b 	ldhuio	r2,0(r2)
     878:	10bfffcc 	andi	r2,r2,65535
     87c:	100b883a 	mov	r5,r2
     880:	01000074 	movhi	r4,1
     884:	21092c04 	addi	r4,r4,9392
     888:	00035cc0 	call	35cc <printf>
			IORD_16DIRECT(CAM_CTRL_BASE,CAM_FRAME_RATE_REG));
}
     88c:	0001883a 	nop
     890:	e037883a 	mov	sp,fp
     894:	dfc00117 	ldw	ra,4(sp)
     898:	df000017 	ldw	fp,0(sp)
     89c:	dec00204 	addi	sp,sp,8
     8a0:	f800283a 	ret

000008a4 <cam_set_image_pointer>:

void cam_set_image_pointer(char pointer_id,
		                   void *memory_pointer) {
     8a4:	defffd04 	addi	sp,sp,-12
     8a8:	df000215 	stw	fp,8(sp)
     8ac:	df000204 	addi	fp,sp,8
     8b0:	2005883a 	mov	r2,r4
     8b4:	e17fff15 	stw	r5,-4(fp)
     8b8:	e0bffe05 	stb	r2,-8(fp)
	switch (pointer_id) {
     8bc:	e0bffe07 	ldb	r2,-8(fp)
     8c0:	10c00060 	cmpeqi	r3,r2,1
     8c4:	18000e1e 	bne	r3,zero,900 <cam_set_image_pointer+0x5c>
     8c8:	10c00088 	cmpgei	r3,r2,2
     8cc:	1800021e 	bne	r3,zero,8d8 <cam_set_image_pointer+0x34>
     8d0:	10000626 	beq	r2,zero,8ec <cam_set_image_pointer+0x48>
                break;
	   case 2 : IOWR_32DIRECT(CAM_CTRL_BASE,CAM_ADDR_PNTR_3,(int)memory_pointer);
                break;
	   case 3 : IOWR_32DIRECT(CAM_CTRL_BASE,CAM_ADDR_PNTR_4,(int)memory_pointer);
                break;
	   default: return;
     8d4:	00001906 	br	93c <cam_set_image_pointer+0x98>
			IORD_16DIRECT(CAM_CTRL_BASE,CAM_FRAME_RATE_REG));
}

void cam_set_image_pointer(char pointer_id,
		                   void *memory_pointer) {
	switch (pointer_id) {
     8d8:	10c000a0 	cmpeqi	r3,r2,2
     8dc:	18000d1e 	bne	r3,zero,914 <cam_set_image_pointer+0x70>
     8e0:	108000e0 	cmpeqi	r2,r2,3
     8e4:	1000101e 	bne	r2,zero,928 <cam_set_image_pointer+0x84>
                break;
	   case 2 : IOWR_32DIRECT(CAM_CTRL_BASE,CAM_ADDR_PNTR_3,(int)memory_pointer);
                break;
	   case 3 : IOWR_32DIRECT(CAM_CTRL_BASE,CAM_ADDR_PNTR_4,(int)memory_pointer);
                break;
	   default: return;
     8e8:	00001406 	br	93c <cam_set_image_pointer+0x98>
}

void cam_set_image_pointer(char pointer_id,
		                   void *memory_pointer) {
	switch (pointer_id) {
	   case 0 : IOWR_32DIRECT(CAM_CTRL_BASE,CAM_ADDR_PNTR_1,(int)memory_pointer);
     8ec:	e0ffff17 	ldw	r3,-4(fp)
     8f0:	00804034 	movhi	r2,256
     8f4:	10841404 	addi	r2,r2,4176
     8f8:	10c00035 	stwio	r3,0(r2)
	            break;
     8fc:	00000f06 	br	93c <cam_set_image_pointer+0x98>
	   case 1 : IOWR_32DIRECT(CAM_CTRL_BASE,CAM_ADDR_PNTR_2,(int)memory_pointer);
     900:	e0ffff17 	ldw	r3,-4(fp)
     904:	00804034 	movhi	r2,256
     908:	10841504 	addi	r2,r2,4180
     90c:	10c00035 	stwio	r3,0(r2)
                break;
     910:	00000a06 	br	93c <cam_set_image_pointer+0x98>
	   case 2 : IOWR_32DIRECT(CAM_CTRL_BASE,CAM_ADDR_PNTR_3,(int)memory_pointer);
     914:	e0ffff17 	ldw	r3,-4(fp)
     918:	00804034 	movhi	r2,256
     91c:	10841604 	addi	r2,r2,4184
     920:	10c00035 	stwio	r3,0(r2)
                break;
     924:	00000506 	br	93c <cam_set_image_pointer+0x98>
	   case 3 : IOWR_32DIRECT(CAM_CTRL_BASE,CAM_ADDR_PNTR_4,(int)memory_pointer);
     928:	e0ffff17 	ldw	r3,-4(fp)
     92c:	00804034 	movhi	r2,256
     930:	10841704 	addi	r2,r2,4188
     934:	10c00035 	stwio	r3,0(r2)
                break;
     938:	0001883a 	nop
	   default: return;
	}
}
     93c:	e037883a 	mov	sp,fp
     940:	df000017 	ldw	fp,0(sp)
     944:	dec00104 	addi	sp,sp,4
     948:	f800283a 	ret

0000094c <current_image_valid>:

short current_image_valid() {
     94c:	defffe04 	addi	sp,sp,-8
     950:	df000115 	stw	fp,4(sp)
     954:	df000104 	addi	fp,sp,4
	unsigned short value;
	value = IORD_16DIRECT(CAM_CTRL_BASE,CAM_CONTROL_REG);
     958:	00804034 	movhi	r2,256
     95c:	10841304 	addi	r2,r2,4172
     960:	1080002b 	ldhuio	r2,0(r2)
     964:	10bfffcc 	andi	r2,r2,65535
     968:	e0bfff0d 	sth	r2,-4(fp)
	return (value&CAM_Current_Image_Valid);
     96c:	e0bfff0b 	ldhu	r2,-4(fp)
     970:	1080800c 	andi	r2,r2,512
}
     974:	e037883a 	mov	sp,fp
     978:	df000017 	ldw	fp,0(sp)
     97c:	dec00104 	addi	sp,sp,4
     980:	f800283a 	ret

00000984 <current_image_pointer>:

void *current_image_pointer() {
     984:	deffff04 	addi	sp,sp,-4
     988:	df000015 	stw	fp,0(sp)
     98c:	d839883a 	mov	fp,sp
	return (void *)IORD_32DIRECT(CAM_CTRL_BASE,CAM_ADDR_PNTR_1);
     990:	00804034 	movhi	r2,256
     994:	10841404 	addi	r2,r2,4176
     998:	10800037 	ldwio	r2,0(r2)
}
     99c:	e037883a 	mov	sp,fp
     9a0:	df000017 	ldw	fp,0(sp)
     9a4:	dec00104 	addi	sp,sp,4
     9a8:	f800283a 	ret

000009ac <take_picture_blocking>:

void take_picture_blocking() {
     9ac:	defffe04 	addi	sp,sp,-8
     9b0:	df000115 	stw	fp,4(sp)
     9b4:	df000104 	addi	fp,sp,4
	unsigned short value;
	IOWR_16DIRECT(CAM_CTRL_BASE,CAM_CONTROL_REG,CAM_Take_Picture);
     9b8:	00c00204 	movi	r3,8
     9bc:	00804034 	movhi	r2,256
     9c0:	10841304 	addi	r2,r2,4172
     9c4:	10c0002d 	sthio	r3,0(r2)
	do {
		value = IORD_16DIRECT(CAM_CTRL_BASE,CAM_CONTROL_REG);
     9c8:	00804034 	movhi	r2,256
     9cc:	10841304 	addi	r2,r2,4172
     9d0:	1080002b 	ldhuio	r2,0(r2)
     9d4:	10bfffcc 	andi	r2,r2,65535
     9d8:	e0bfff0d 	sth	r2,-4(fp)
	} while ((value&CAM_Busy)!= 0);
     9dc:	e0bfff0b 	ldhu	r2,-4(fp)
     9e0:	1080020c 	andi	r2,r2,8
     9e4:	103ff81e 	bne	r2,zero,9c8 <take_picture_blocking+0x1c>
}
     9e8:	0001883a 	nop
     9ec:	e037883a 	mov	sp,fp
     9f0:	df000017 	ldw	fp,0(sp)
     9f4:	dec00104 	addi	sp,sp,4
     9f8:	f800283a 	ret

000009fc <enable_continues_mode>:

void enable_continues_mode() {
     9fc:	deffff04 	addi	sp,sp,-4
     a00:	df000015 	stw	fp,0(sp)
     a04:	d839883a 	mov	fp,sp
	IOWR_16DIRECT(CAM_CTRL_BASE,CAM_CONTROL_REG,CAM_Start_Continues);
     a08:	00c00404 	movi	r3,16
     a0c:	00804034 	movhi	r2,256
     a10:	10841304 	addi	r2,r2,4172
     a14:	10c0002d 	sthio	r3,0(r2)
}
     a18:	0001883a 	nop
     a1c:	e037883a 	mov	sp,fp
     a20:	df000017 	ldw	fp,0(sp)
     a24:	dec00104 	addi	sp,sp,4
     a28:	f800283a 	ret

00000a2c <new_image_available>:

char new_image_available() {
     a2c:	defffe04 	addi	sp,sp,-8
     a30:	df000115 	stw	fp,4(sp)
     a34:	df000104 	addi	fp,sp,4
	unsigned short value;
	value = IORD_16DIRECT(CAM_CTRL_BASE,CAM_CONTROL_REG);
     a38:	00804034 	movhi	r2,256
     a3c:	10841304 	addi	r2,r2,4172
     a40:	1080002b 	ldhuio	r2,0(r2)
     a44:	10bfffcc 	andi	r2,r2,65535
     a48:	e0bfff0d 	sth	r2,-4(fp)
	if ((value&CAM_IRQ_Generated)!=0) {
     a4c:	e0bfff0b 	ldhu	r2,-4(fp)
     a50:	1080200c 	andi	r2,r2,128
     a54:	10000626 	beq	r2,zero,a70 <new_image_available+0x44>
		IOWR_16DIRECT(CAM_CTRL_BASE,CAM_CONTROL_REG,CAM_Clear_IRQ);
     a58:	00c04004 	movi	r3,256
     a5c:	00804034 	movhi	r2,256
     a60:	10841304 	addi	r2,r2,4172
     a64:	10c0002d 	sthio	r3,0(r2)
		return 1;
     a68:	00800044 	movi	r2,1
     a6c:	00000106 	br	a74 <new_image_available+0x48>
	} else return 0;
     a70:	0005883a 	mov	r2,zero
}
     a74:	e037883a 	mov	sp,fp
     a78:	df000017 	ldw	fp,0(sp)
     a7c:	dec00104 	addi	sp,sp,4
     a80:	f800283a 	ret

00000a84 <DIPSW_get_value>:
 */

#include <system.h>
#include <io.h>

unsigned char DIPSW_get_value() {
     a84:	deffff04 	addi	sp,sp,-4
     a88:	df000015 	stw	fp,0(sp)
     a8c:	d839883a 	mov	fp,sp
	return IORD_8DIRECT(PIO_0_BASE,0)^0xFF;
     a90:	00804034 	movhi	r2,256
     a94:	10842804 	addi	r2,r2,4256
     a98:	10800023 	ldbuio	r2,0(r2)
     a9c:	10803fcc 	andi	r2,r2,255
     aa0:	0084303a 	nor	r2,zero,r2
}
     aa4:	e037883a 	mov	sp,fp
     aa8:	df000017 	ldw	fp,0(sp)
     aac:	dec00104 	addi	sp,sp,4
     ab0:	f800283a 	ret

00000ab4 <conv_grayscale>:
int grayscale_width = 0;
int grayscape_height = 0;

void conv_grayscale(void *picture,
		            int width,
		            int height) {
     ab4:	defff604 	addi	sp,sp,-40
     ab8:	dfc00915 	stw	ra,36(sp)
     abc:	df000815 	stw	fp,32(sp)
     ac0:	df000804 	addi	fp,sp,32
     ac4:	e13ffd15 	stw	r4,-12(fp)
     ac8:	e17ffe15 	stw	r5,-8(fp)
     acc:	e1bfff15 	stw	r6,-4(fp)
	int x,y,gray;
	unsigned short *pixels = (unsigned short *)picture , rgb;
     ad0:	e0bffd17 	ldw	r2,-12(fp)
     ad4:	e0bffa15 	stw	r2,-24(fp)
	grayscale_width = width;
     ad8:	e0bffe17 	ldw	r2,-8(fp)
     adc:	d0a6cb15 	stw	r2,-25812(gp)
	grayscape_height = height;
     ae0:	e0bfff17 	ldw	r2,-4(fp)
     ae4:	d0a6cc15 	stw	r2,-25808(gp)
	if (grayscale_array != NULL)
     ae8:	d0a6cd17 	ldw	r2,-25804(gp)
     aec:	10000326 	beq	r2,zero,afc <conv_grayscale+0x48>
		free(grayscale_array);
     af0:	d0a6cd17 	ldw	r2,-25804(gp)
     af4:	1009883a 	mov	r4,r2
     af8:	0002d7c0 	call	2d7c <free>
	grayscale_array = (unsigned char *) malloc(width*height);
     afc:	e0fffe17 	ldw	r3,-8(fp)
     b00:	e0bfff17 	ldw	r2,-4(fp)
     b04:	1885383a 	mul	r2,r3,r2
     b08:	1009883a 	mov	r4,r2
     b0c:	0002d680 	call	2d68 <malloc>
     b10:	d0a6cd15 	stw	r2,-25804(gp)
	for (y = 0 ; y < height ; y++) {
     b14:	e03ff915 	stw	zero,-28(fp)
     b18:	00003a06 	br	c04 <conv_grayscale+0x150>
		for (x = 0 ; x < width ; x++) {
     b1c:	e03ff815 	stw	zero,-32(fp)
     b20:	00003206 	br	bec <conv_grayscale+0x138>
			rgb = pixels[y*width+x];
     b24:	e0fff917 	ldw	r3,-28(fp)
     b28:	e0bffe17 	ldw	r2,-8(fp)
     b2c:	1887383a 	mul	r3,r3,r2
     b30:	e0bff817 	ldw	r2,-32(fp)
     b34:	1885883a 	add	r2,r3,r2
     b38:	1085883a 	add	r2,r2,r2
     b3c:	1007883a 	mov	r3,r2
     b40:	e0bffa17 	ldw	r2,-24(fp)
     b44:	10c5883a 	add	r2,r2,r3
     b48:	1080000b 	ldhu	r2,0(r2)
     b4c:	e0bffb0d 	sth	r2,-20(fp)
			//gray = (((rgb>>11)&0x1F)<<3)*21; // red part
			//gray += (((rgb>>5)&0x3F)<<2)*72; // green part
			//gray += (((rgb>>0)&0x1F)<<3)*7; // blue part
			//gray /= 100;
			// Optimized RGB to gray
			gray = (((rgb>>11)&0x1F)<<3)*38; // red part
     b50:	e0bffb0b 	ldhu	r2,-20(fp)
     b54:	1004d2fa 	srli	r2,r2,11
     b58:	10bfffcc 	andi	r2,r2,65535
     b5c:	100490fa 	slli	r2,r2,3
     b60:	10803fcc 	andi	r2,r2,255
     b64:	108009a4 	muli	r2,r2,38
     b68:	e0bffc15 	stw	r2,-16(fp)
			gray += (((rgb>>5)&0x3F)<<2)*75; // green part
     b6c:	e0bffb0b 	ldhu	r2,-20(fp)
     b70:	1004d17a 	srli	r2,r2,5
     b74:	10bfffcc 	andi	r2,r2,65535
     b78:	1085883a 	add	r2,r2,r2
     b7c:	1085883a 	add	r2,r2,r2
     b80:	10803fcc 	andi	r2,r2,255
     b84:	108012e4 	muli	r2,r2,75
     b88:	e0fffc17 	ldw	r3,-16(fp)
     b8c:	1885883a 	add	r2,r3,r2
     b90:	e0bffc15 	stw	r2,-16(fp)
			gray += (((rgb>>0)&0x1F)<<3)*14; // blue part
     b94:	e0bffb0b 	ldhu	r2,-20(fp)
     b98:	100490fa 	slli	r2,r2,3
     b9c:	10803fcc 	andi	r2,r2,255
     ba0:	108003a4 	muli	r2,r2,14
     ba4:	e0fffc17 	ldw	r3,-16(fp)
     ba8:	1885883a 	add	r2,r3,r2
     bac:	e0bffc15 	stw	r2,-16(fp)
			gray >>= 8;
     bb0:	e0bffc17 	ldw	r2,-16(fp)
     bb4:	1005d23a 	srai	r2,r2,8
     bb8:	e0bffc15 	stw	r2,-16(fp)
			IOWR_8DIRECT(grayscale_array,y*width+x,gray);
     bbc:	d0a6cd17 	ldw	r2,-25804(gp)
     bc0:	e13ff917 	ldw	r4,-28(fp)
     bc4:	e0fffe17 	ldw	r3,-8(fp)
     bc8:	20c9383a 	mul	r4,r4,r3
     bcc:	e0fff817 	ldw	r3,-32(fp)
     bd0:	20c7883a 	add	r3,r4,r3
     bd4:	10c5883a 	add	r2,r2,r3
     bd8:	e0fffc03 	ldbu	r3,-16(fp)
     bdc:	10c00025 	stbio	r3,0(r2)
	grayscape_height = height;
	if (grayscale_array != NULL)
		free(grayscale_array);
	grayscale_array = (unsigned char *) malloc(width*height);
	for (y = 0 ; y < height ; y++) {
		for (x = 0 ; x < width ; x++) {
     be0:	e0bff817 	ldw	r2,-32(fp)
     be4:	10800044 	addi	r2,r2,1
     be8:	e0bff815 	stw	r2,-32(fp)
     bec:	e0fff817 	ldw	r3,-32(fp)
     bf0:	e0bffe17 	ldw	r2,-8(fp)
     bf4:	18bfcb16 	blt	r3,r2,b24 <conv_grayscale+0x70>
	grayscale_width = width;
	grayscape_height = height;
	if (grayscale_array != NULL)
		free(grayscale_array);
	grayscale_array = (unsigned char *) malloc(width*height);
	for (y = 0 ; y < height ; y++) {
     bf8:	e0bff917 	ldw	r2,-28(fp)
     bfc:	10800044 	addi	r2,r2,1
     c00:	e0bff915 	stw	r2,-28(fp)
     c04:	e0fff917 	ldw	r3,-28(fp)
     c08:	e0bfff17 	ldw	r2,-4(fp)
     c0c:	18bfc316 	blt	r3,r2,b1c <conv_grayscale+0x68>
			gray += (((rgb>>0)&0x1F)<<3)*14; // blue part
			gray >>= 8;
			IOWR_8DIRECT(grayscale_array,y*width+x,gray);
		}
	}
}
     c10:	0001883a 	nop
     c14:	e037883a 	mov	sp,fp
     c18:	dfc00117 	ldw	ra,4(sp)
     c1c:	df000017 	ldw	fp,0(sp)
     c20:	dec00204 	addi	sp,sp,8
     c24:	f800283a 	ret

00000c28 <get_grayscale_width>:


int get_grayscale_width() {
     c28:	deffff04 	addi	sp,sp,-4
     c2c:	df000015 	stw	fp,0(sp)
     c30:	d839883a 	mov	fp,sp
	return grayscale_width;
     c34:	d0a6cb17 	ldw	r2,-25812(gp)
}
     c38:	e037883a 	mov	sp,fp
     c3c:	df000017 	ldw	fp,0(sp)
     c40:	dec00104 	addi	sp,sp,4
     c44:	f800283a 	ret

00000c48 <get_grayscale_height>:

int get_grayscale_height() {
     c48:	deffff04 	addi	sp,sp,-4
     c4c:	df000015 	stw	fp,0(sp)
     c50:	d839883a 	mov	fp,sp
	return grayscape_height;
     c54:	d0a6cc17 	ldw	r2,-25808(gp)
}
     c58:	e037883a 	mov	sp,fp
     c5c:	df000017 	ldw	fp,0(sp)
     c60:	dec00104 	addi	sp,sp,4
     c64:	f800283a 	ret

00000c68 <get_grayscale_picture>:

unsigned char *get_grayscale_picture() {
     c68:	deffff04 	addi	sp,sp,-4
     c6c:	df000015 	stw	fp,0(sp)
     c70:	d839883a 	mov	fp,sp
	return grayscale_array;
     c74:	d0a6cd17 	ldw	r2,-25804(gp)
}
     c78:	e037883a 	mov	sp,fp
     c7c:	df000017 	ldw	fp,0(sp)
     c80:	dec00104 	addi	sp,sp,4
     c84:	f800283a 	ret

00000c88 <i2c_busy_wait>:

#include <system.h>
#include <io.h>
#include "i2c.h"

void i2c_busy_wait() {
     c88:	defffe04 	addi	sp,sp,-8
     c8c:	df000115 	stw	fp,4(sp)
     c90:	df000104 	addi	fp,sp,4
	int busy;
	do {
		busy = IORD_32DIRECT(I2C_CTRL_BASE,I2C_CONTROL_REG);
     c94:	00804034 	movhi	r2,256
     c98:	10842704 	addi	r2,r2,4252
     c9c:	10800037 	ldwio	r2,0(r2)
     ca0:	e0bfff15 	stw	r2,-4(fp)
	} while ((busy&(I2C_Busy_Flag|I2C_Autodetect_Busy_Flag))!=0);
     ca4:	e0bfff17 	ldw	r2,-4(fp)
     ca8:	108000cc 	andi	r2,r2,3
     cac:	103ff91e 	bne	r2,zero,c94 <i2c_busy_wait+0xc>
}
     cb0:	0001883a 	nop
     cb4:	e037883a 	mov	sp,fp
     cb8:	df000017 	ldw	fp,0(sp)
     cbc:	dec00104 	addi	sp,sp,4
     cc0:	f800283a 	ret

00000cc4 <i2c_auto_detect>:

void i2c_auto_detect() {
     cc4:	defffb04 	addi	sp,sp,-20
     cc8:	dfc00415 	stw	ra,16(sp)
     ccc:	df000315 	stw	fp,12(sp)
     cd0:	df000304 	addi	fp,sp,12
	int nrdef,loop,value;
    i2c_busy_wait();
     cd4:	0000c880 	call	c88 <i2c_busy_wait>
    IOWR_32DIRECT(I2C_CTRL_BASE,I2C_CONTROL_REG,I2C_Autodetect);
     cd8:	00c00104 	movi	r3,4
     cdc:	00804034 	movhi	r2,256
     ce0:	10842704 	addi	r2,r2,4252
     ce4:	10c00035 	stwio	r3,0(r2)
    i2c_busy_wait();
     ce8:	0000c880 	call	c88 <i2c_busy_wait>
    nrdef = IORD_32DIRECT(I2C_CTRL_BASE,I2C_ADDR_REG);
     cec:	00804034 	movhi	r2,256
     cf0:	10842504 	addi	r2,r2,4244
     cf4:	10800037 	ldwio	r2,0(r2)
     cf8:	e0bffe15 	stw	r2,-8(fp)
    printf("Number of I2C devices detected: %d\n",nrdef);
     cfc:	e17ffe17 	ldw	r5,-8(fp)
     d00:	01000074 	movhi	r4,1
     d04:	21093404 	addi	r4,r4,9424
     d08:	00035cc0 	call	35cc <printf>
    for (loop = 0 ; loop < nrdef ; loop++) {
     d0c:	e03ffd15 	stw	zero,-12(fp)
     d10:	00001006 	br	d54 <i2c_auto_detect+0x90>
    	IOWR_32DIRECT(I2C_CTRL_BASE,I2C_DEVICE_ID_REG,loop);
     d14:	00804034 	movhi	r2,256
     d18:	10842404 	addi	r2,r2,4240
     d1c:	e0fffd17 	ldw	r3,-12(fp)
     d20:	10c00035 	stwio	r3,0(r2)
    	value = IORD_32DIRECT(I2C_CTRL_BASE,I2C_DEVICE_ID_REG);
     d24:	00804034 	movhi	r2,256
     d28:	10842404 	addi	r2,r2,4240
     d2c:	10800037 	ldwio	r2,0(r2)
     d30:	e0bfff15 	stw	r2,-4(fp)
    	printf("Device nr. %d has Address: 0x%02X\n",loop,value);
     d34:	e1bfff17 	ldw	r6,-4(fp)
     d38:	e17ffd17 	ldw	r5,-12(fp)
     d3c:	01000074 	movhi	r4,1
     d40:	21093d04 	addi	r4,r4,9460
     d44:	00035cc0 	call	35cc <printf>
    i2c_busy_wait();
    IOWR_32DIRECT(I2C_CTRL_BASE,I2C_CONTROL_REG,I2C_Autodetect);
    i2c_busy_wait();
    nrdef = IORD_32DIRECT(I2C_CTRL_BASE,I2C_ADDR_REG);
    printf("Number of I2C devices detected: %d\n",nrdef);
    for (loop = 0 ; loop < nrdef ; loop++) {
     d48:	e0bffd17 	ldw	r2,-12(fp)
     d4c:	10800044 	addi	r2,r2,1
     d50:	e0bffd15 	stw	r2,-12(fp)
     d54:	e0fffd17 	ldw	r3,-12(fp)
     d58:	e0bffe17 	ldw	r2,-8(fp)
     d5c:	18bfed16 	blt	r3,r2,d14 <i2c_auto_detect+0x50>
    	IOWR_32DIRECT(I2C_CTRL_BASE,I2C_DEVICE_ID_REG,loop);
    	value = IORD_32DIRECT(I2C_CTRL_BASE,I2C_DEVICE_ID_REG);
    	printf("Device nr. %d has Address: 0x%02X\n",loop,value);
    }
}
     d60:	0001883a 	nop
     d64:	e037883a 	mov	sp,fp
     d68:	dfc00117 	ldw	ra,4(sp)
     d6c:	df000017 	ldw	fp,0(sp)
     d70:	dec00204 	addi	sp,sp,8
     d74:	f800283a 	ret

00000d78 <i2c_short_read>:

unsigned int i2c_short_read(unsigned char device_id,
		                    unsigned short address) {
     d78:	defffc04 	addi	sp,sp,-16
     d7c:	dfc00315 	stw	ra,12(sp)
     d80:	df000215 	stw	fp,8(sp)
     d84:	df000204 	addi	fp,sp,8
     d88:	2007883a 	mov	r3,r4
     d8c:	2805883a 	mov	r2,r5
     d90:	e0fffe05 	stb	r3,-8(fp)
     d94:	e0bfff0d 	sth	r2,-4(fp)
	i2c_busy_wait();
     d98:	0000c880 	call	c88 <i2c_busy_wait>
	IOWR_8DIRECT(I2C_CTRL_BASE,I2C_DEVICE_ID_REG,device_id);
     d9c:	e0fffe03 	ldbu	r3,-8(fp)
     da0:	00804034 	movhi	r2,256
     da4:	10842404 	addi	r2,r2,4240
     da8:	10c00025 	stbio	r3,0(r2)
	IOWR_16DIRECT(I2C_CTRL_BASE,I2C_ADDR_REG,address);
     dac:	e0ffff0b 	ldhu	r3,-4(fp)
     db0:	00804034 	movhi	r2,256
     db4:	10842504 	addi	r2,r2,4244
     db8:	10c0002d 	sthio	r3,0(r2)
	IOWR_8DIRECT(I2C_CTRL_BASE,I2C_CONTROL_REG,
     dbc:	00c010c4 	movi	r3,67
     dc0:	00804034 	movhi	r2,256
     dc4:	10842704 	addi	r2,r2,4252
     dc8:	10c00025 	stbio	r3,0(r2)
			     I2C_2Byte_Transfer|I2C_Start|I2C_Short_Transfer);
	i2c_busy_wait();
     dcc:	0000c880 	call	c88 <i2c_busy_wait>
	IOWR_8DIRECT(I2C_CTRL_BASE,I2C_DEVICE_ID_REG,device_id+1);
     dd0:	e0bffe03 	ldbu	r2,-8(fp)
     dd4:	10c00044 	addi	r3,r2,1
     dd8:	00804034 	movhi	r2,256
     ddc:	10842404 	addi	r2,r2,4240
     de0:	10c00025 	stbio	r3,0(r2)
	IOWR_8DIRECT(I2C_CTRL_BASE,I2C_CONTROL_REG,
     de4:	00c00884 	movi	r3,34
     de8:	00804034 	movhi	r2,256
     dec:	10842704 	addi	r2,r2,4252
     df0:	10c00025 	stbio	r3,0(r2)
			     I2C_Start|I2C_4Byte_Read);
	i2c_busy_wait();
     df4:	0000c880 	call	c88 <i2c_busy_wait>
	return IORD_32DIRECT(I2C_CTRL_BASE,I2C_DATA_REG);
     df8:	00804034 	movhi	r2,256
     dfc:	10842604 	addi	r2,r2,4248
     e00:	10800037 	ldwio	r2,0(r2)
}
     e04:	e037883a 	mov	sp,fp
     e08:	dfc00117 	ldw	ra,4(sp)
     e0c:	df000017 	ldw	fp,0(sp)
     e10:	dec00204 	addi	sp,sp,8
     e14:	f800283a 	ret

00000e18 <i2c_short_write>:

void i2c_short_write(unsigned char device_id,
		             unsigned short address,
		             unsigned short data) {
     e18:	defffb04 	addi	sp,sp,-20
     e1c:	dfc00415 	stw	ra,16(sp)
     e20:	df000315 	stw	fp,12(sp)
     e24:	df000304 	addi	fp,sp,12
     e28:	2807883a 	mov	r3,r5
     e2c:	3005883a 	mov	r2,r6
     e30:	e13ffd05 	stb	r4,-12(fp)
     e34:	e0fffe0d 	sth	r3,-8(fp)
     e38:	e0bfff0d 	sth	r2,-4(fp)
	i2c_busy_wait();
     e3c:	0000c880 	call	c88 <i2c_busy_wait>
	IOWR_8DIRECT(I2C_CTRL_BASE,I2C_DEVICE_ID_REG,device_id);
     e40:	e0fffd03 	ldbu	r3,-12(fp)
     e44:	00804034 	movhi	r2,256
     e48:	10842404 	addi	r2,r2,4240
     e4c:	10c00025 	stbio	r3,0(r2)
	IOWR_16DIRECT(I2C_CTRL_BASE,I2C_ADDR_REG,address);
     e50:	e0fffe0b 	ldhu	r3,-8(fp)
     e54:	00804034 	movhi	r2,256
     e58:	10842504 	addi	r2,r2,4244
     e5c:	10c0002d 	sthio	r3,0(r2)
	IOWR_16DIRECT(I2C_CTRL_BASE,I2C_DATA_REG,data);
     e60:	e0ffff0b 	ldhu	r3,-4(fp)
     e64:	00804034 	movhi	r2,256
     e68:	10842604 	addi	r2,r2,4248
     e6c:	10c0002d 	sthio	r3,0(r2)
	IOWR_8DIRECT(I2C_CTRL_BASE,I2C_CONTROL_REG,
     e70:	00c01084 	movi	r3,66
     e74:	00804034 	movhi	r2,256
     e78:	10842704 	addi	r2,r2,4252
     e7c:	10c00025 	stbio	r3,0(r2)
			     I2C_Start|I2C_Short_Transfer);
	i2c_busy_wait();
     e80:	0000c880 	call	c88 <i2c_busy_wait>
}
     e84:	0001883a 	nop
     e88:	e037883a 	mov	sp,fp
     e8c:	dfc00117 	ldw	ra,4(sp)
     e90:	df000017 	ldw	fp,0(sp)
     e94:	dec00204 	addi	sp,sp,8
     e98:	f800283a 	ret

00000e9c <LCD_Write_Command>:
#include "lcd_simple.h"

unsigned short LCD_width;
unsigned short LCD_height;

void LCD_Write_Command(int command) {
     e9c:	defffd04 	addi	sp,sp,-12
     ea0:	dfc00215 	stw	ra,8(sp)
     ea4:	df000115 	stw	fp,4(sp)
     ea8:	df000104 	addi	fp,sp,4
     eac:	e13fff15 	stw	r4,-4(fp)
	IOWR_16DIRECT(LCD_CTRL_BASE,LCD_COMMAND_REG,command);
     eb0:	00804034 	movhi	r2,256
     eb4:	10841804 	addi	r2,r2,4192
     eb8:	e0ffff0b 	ldhu	r3,-4(fp)
     ebc:	10c0002d 	sthio	r3,0(r2)
	usleep(10);
     ec0:	01000284 	movi	r4,10
     ec4:	000fec00 	call	fec0 <usleep>
}
     ec8:	0001883a 	nop
     ecc:	e037883a 	mov	sp,fp
     ed0:	dfc00117 	ldw	ra,4(sp)
     ed4:	df000017 	ldw	fp,0(sp)
     ed8:	dec00204 	addi	sp,sp,8
     edc:	f800283a 	ret

00000ee0 <LCD_Write_Data>:

void LCD_Write_Data(int data) {
     ee0:	defffd04 	addi	sp,sp,-12
     ee4:	dfc00215 	stw	ra,8(sp)
     ee8:	df000115 	stw	fp,4(sp)
     eec:	df000104 	addi	fp,sp,4
     ef0:	e13fff15 	stw	r4,-4(fp)
	IOWR_16DIRECT(LCD_CTRL_BASE,LCD_DATA_REG,data);
     ef4:	00804034 	movhi	r2,256
     ef8:	10841904 	addi	r2,r2,4196
     efc:	e0ffff0b 	ldhu	r3,-4(fp)
     f00:	10c0002d 	sthio	r3,0(r2)
	usleep(10);
     f04:	01000284 	movi	r4,10
     f08:	000fec00 	call	fec0 <usleep>
}
     f0c:	0001883a 	nop
     f10:	e037883a 	mov	sp,fp
     f14:	dfc00117 	ldw	ra,4(sp)
     f18:	df000017 	ldw	fp,0(sp)
     f1c:	dec00204 	addi	sp,sp,8
     f20:	f800283a 	ret

00000f24 <init_LCD>:


void init_LCD() {
     f24:	defffe04 	addi	sp,sp,-8
     f28:	dfc00115 	stw	ra,4(sp)
     f2c:	df000015 	stw	fp,0(sp)
     f30:	d839883a 	mov	fp,sp
	IOWR_16DIRECT(LCD_CTRL_BASE,LCD_CONTROL_REG,
     f34:	00c00084 	movi	r3,2
     f38:	00804034 	movhi	r2,256
     f3c:	10841a04 	addi	r2,r2,4200
     f40:	10c0002d 	sthio	r3,0(r2)
			         LCD_Sixteen_Bit|LCD_Reset|
			         LCD_RGB565_Mode|LCD_Color_Image); // Set 16 bit transfer mode and reset
	LCD_Write_Command(0x0028); 	//display OFF
     f44:	01000a04 	movi	r4,40
     f48:	0000e9c0 	call	e9c <LCD_Write_Command>
	LCD_Write_Command(0x0011); 	//exit SLEEP mode
     f4c:	01000444 	movi	r4,17
     f50:	0000e9c0 	call	e9c <LCD_Write_Command>
	LCD_Write_Data(0x0000);
     f54:	0009883a 	mov	r4,zero
     f58:	0000ee00 	call	ee0 <LCD_Write_Data>

	LCD_Write_Command(0x00CB); 	//Power Control A
     f5c:	010032c4 	movi	r4,203
     f60:	0000e9c0 	call	e9c <LCD_Write_Command>
	LCD_Write_Data(0x0039); 	//always 0x39
     f64:	01000e44 	movi	r4,57
     f68:	0000ee00 	call	ee0 <LCD_Write_Data>
	LCD_Write_Data(0x002C); 	//always 0x2C
     f6c:	01000b04 	movi	r4,44
     f70:	0000ee00 	call	ee0 <LCD_Write_Data>
	LCD_Write_Data(0x0000); 	//always 0x00
     f74:	0009883a 	mov	r4,zero
     f78:	0000ee00 	call	ee0 <LCD_Write_Data>
	LCD_Write_Data(0x0034); 	//Vcore = 1.6V
     f7c:	01000d04 	movi	r4,52
     f80:	0000ee00 	call	ee0 <LCD_Write_Data>
	LCD_Write_Data(0x0002); 	//DDVDH = 5.6V
     f84:	01000084 	movi	r4,2
     f88:	0000ee00 	call	ee0 <LCD_Write_Data>

	LCD_Write_Command(0x00CF); 	//Power Control B
     f8c:	010033c4 	movi	r4,207
     f90:	0000e9c0 	call	e9c <LCD_Write_Command>
	LCD_Write_Data(0x0000); 	//always 0x00
     f94:	0009883a 	mov	r4,zero
     f98:	0000ee00 	call	ee0 <LCD_Write_Data>
	LCD_Write_Data(0x0081); 	//PCEQ off
     f9c:	01002044 	movi	r4,129
     fa0:	0000ee00 	call	ee0 <LCD_Write_Data>
	LCD_Write_Data(0x0030); 	//ESD protection
     fa4:	01000c04 	movi	r4,48
     fa8:	0000ee00 	call	ee0 <LCD_Write_Data>

	LCD_Write_Command(0x00E8); 	//Driver timing control A
     fac:	01003a04 	movi	r4,232
     fb0:	0000e9c0 	call	e9c <LCD_Write_Command>
	LCD_Write_Data(0x0085); 	//non - overlap
     fb4:	01002144 	movi	r4,133
     fb8:	0000ee00 	call	ee0 <LCD_Write_Data>
	LCD_Write_Data(0x0001); 	//EQ timing
     fbc:	01000044 	movi	r4,1
     fc0:	0000ee00 	call	ee0 <LCD_Write_Data>
	LCD_Write_Data(0x0079); 	//Pre-chargetiming
     fc4:	01001e44 	movi	r4,121
     fc8:	0000ee00 	call	ee0 <LCD_Write_Data>
	LCD_Write_Command(0x00EA); 	//Driver timing control B
     fcc:	01003a84 	movi	r4,234
     fd0:	0000e9c0 	call	e9c <LCD_Write_Command>
	LCD_Write_Data(0x0000);		//Gate driver timing
     fd4:	0009883a 	mov	r4,zero
     fd8:	0000ee00 	call	ee0 <LCD_Write_Data>
	LCD_Write_Data(0x0000);		//always 0x00
     fdc:	0009883a 	mov	r4,zero
     fe0:	0000ee00 	call	ee0 <LCD_Write_Data>
	LCD_Write_Data(0x0064);		//softstart
     fe4:	01001904 	movi	r4,100
     fe8:	0000ee00 	call	ee0 <LCD_Write_Data>
	LCD_Write_Data(0x0003);		//poweronsequence
     fec:	010000c4 	movi	r4,3
     ff0:	0000ee00 	call	ee0 <LCD_Write_Data>
	LCD_Write_Data(0x0012);		//poweronsequence
     ff4:	01000484 	movi	r4,18
     ff8:	0000ee00 	call	ee0 <LCD_Write_Data>
	LCD_Write_Data(0x0081);		//DDVDHenhanceon
     ffc:	01002044 	movi	r4,129
    1000:	0000ee00 	call	ee0 <LCD_Write_Data>

	LCD_Write_Command(0x00F7); 	//Pumpratiocontrol
    1004:	01003dc4 	movi	r4,247
    1008:	0000e9c0 	call	e9c <LCD_Write_Command>
	LCD_Write_Data(0x0020); 	//DDVDH=2xVCI
    100c:	01000804 	movi	r4,32
    1010:	0000ee00 	call	ee0 <LCD_Write_Data>

	LCD_Write_Command(0x00C0);	//powercontrol1
    1014:	01003004 	movi	r4,192
    1018:	0000e9c0 	call	e9c <LCD_Write_Command>
	LCD_Write_Data(0x0026);
    101c:	01000984 	movi	r4,38
    1020:	0000ee00 	call	ee0 <LCD_Write_Data>
	LCD_Write_Data(0x0004); 	//secondparameterforILI9340(ignoredbyILI9341)
    1024:	01000104 	movi	r4,4
    1028:	0000ee00 	call	ee0 <LCD_Write_Data>

	LCD_Write_Command(0x00C1); 	//powercontrol2
    102c:	01003044 	movi	r4,193
    1030:	0000e9c0 	call	e9c <LCD_Write_Command>
	LCD_Write_Data(0x0011);
    1034:	01000444 	movi	r4,17
    1038:	0000ee00 	call	ee0 <LCD_Write_Data>

	LCD_Write_Command(0x00C5); 	//VCOMcontrol1
    103c:	01003144 	movi	r4,197
    1040:	0000e9c0 	call	e9c <LCD_Write_Command>
	LCD_Write_Data(0x0035);
    1044:	01000d44 	movi	r4,53
    1048:	0000ee00 	call	ee0 <LCD_Write_Data>
	LCD_Write_Data(0x003E);
    104c:	01000f84 	movi	r4,62
    1050:	0000ee00 	call	ee0 <LCD_Write_Data>

	LCD_Write_Command(0x00C7); 	//VCOMcontrol2
    1054:	010031c4 	movi	r4,199
    1058:	0000e9c0 	call	e9c <LCD_Write_Command>
	LCD_Write_Data(0x00BE);
    105c:	01002f84 	movi	r4,190
    1060:	0000ee00 	call	ee0 <LCD_Write_Data>

	LCD_Write_Command(0x00B1); 	//frameratecontrol
    1064:	01002c44 	movi	r4,177
    1068:	0000e9c0 	call	e9c <LCD_Write_Command>
	LCD_Write_Data(0x0000);
    106c:	0009883a 	mov	r4,zero
    1070:	0000ee00 	call	ee0 <LCD_Write_Data>
	LCD_Write_Data(0x0010);
    1074:	01000404 	movi	r4,16
    1078:	0000ee00 	call	ee0 <LCD_Write_Data>

	LCD_Write_Command(0x003A);	//pixelformat=16bitperpixel
    107c:	01000e84 	movi	r4,58
    1080:	0000e9c0 	call	e9c <LCD_Write_Command>
	LCD_Write_Data(0x0055);
    1084:	01001544 	movi	r4,85
    1088:	0000ee00 	call	ee0 <LCD_Write_Data>

	LCD_Write_Command(0x00B6); 	//displayfunctioncontrol
    108c:	01002d84 	movi	r4,182
    1090:	0000e9c0 	call	e9c <LCD_Write_Command>
	LCD_Write_Data(0x000A);
    1094:	01000284 	movi	r4,10
    1098:	0000ee00 	call	ee0 <LCD_Write_Data>
	LCD_Write_Data(0x00A2);
    109c:	01002884 	movi	r4,162
    10a0:	0000ee00 	call	ee0 <LCD_Write_Data>

	LCD_Write_Command(0x00F2); 	//3GGammacontrol
    10a4:	01003c84 	movi	r4,242
    10a8:	0000e9c0 	call	e9c <LCD_Write_Command>
	LCD_Write_Data(0x0002);	 	//off
    10ac:	01000084 	movi	r4,2
    10b0:	0000ee00 	call	ee0 <LCD_Write_Data>

	LCD_Write_Command(0x0026); 	//Gammacurve3
    10b4:	01000984 	movi	r4,38
    10b8:	0000e9c0 	call	e9c <LCD_Write_Command>
	LCD_Write_Data(0x0001);
    10bc:	01000044 	movi	r4,1
    10c0:	0000ee00 	call	ee0 <LCD_Write_Data>

	LCD_Write_Command(0x0036); 	//memoryaccesscontrol=BGR
    10c4:	01000d84 	movi	r4,54
    10c8:	0000e9c0 	call	e9c <LCD_Write_Command>
	LCD_Write_Data(0x0000);
    10cc:	0009883a 	mov	r4,zero
    10d0:	0000ee00 	call	ee0 <LCD_Write_Data>

	LCD_Write_Command(0x002A); 	//columnaddressset
    10d4:	01000a84 	movi	r4,42
    10d8:	0000e9c0 	call	e9c <LCD_Write_Command>
	LCD_Write_Data(0x0000);
    10dc:	0009883a 	mov	r4,zero
    10e0:	0000ee00 	call	ee0 <LCD_Write_Data>
	LCD_Write_Data(0x0000);		//start0x0000
    10e4:	0009883a 	mov	r4,zero
    10e8:	0000ee00 	call	ee0 <LCD_Write_Data>
	LCD_Write_Data(0x0000);
    10ec:	0009883a 	mov	r4,zero
    10f0:	0000ee00 	call	ee0 <LCD_Write_Data>
	LCD_Write_Data(0x00EF);		//end0x00EF
    10f4:	01003bc4 	movi	r4,239
    10f8:	0000ee00 	call	ee0 <LCD_Write_Data>

	LCD_Write_Command(0x002B);	//pageaddressset
    10fc:	01000ac4 	movi	r4,43
    1100:	0000e9c0 	call	e9c <LCD_Write_Command>
	LCD_Write_Data(0x0000);
    1104:	0009883a 	mov	r4,zero
    1108:	0000ee00 	call	ee0 <LCD_Write_Data>
	LCD_Write_Data(0x0000);		//start0x0000
    110c:	0009883a 	mov	r4,zero
    1110:	0000ee00 	call	ee0 <LCD_Write_Data>
	LCD_Write_Data(0x0001);
    1114:	01000044 	movi	r4,1
    1118:	0000ee00 	call	ee0 <LCD_Write_Data>
	LCD_Write_Data(0x003F);		//end0x013F
    111c:	01000fc4 	movi	r4,63
    1120:	0000ee00 	call	ee0 <LCD_Write_Data>
	IOWR_32DIRECT(LCD_CTRL_BASE,LCD_NR_PIX_LINE_REG,240);
    1124:	00c03c04 	movi	r3,240
    1128:	00804034 	movhi	r2,256
    112c:	10841d04 	addi	r2,r2,4212
    1130:	10c00035 	stwio	r3,0(r2)
	LCD_width = 240;
    1134:	00803c04 	movi	r2,240
    1138:	d0a6ce8d 	sth	r2,-25798(gp)
	LCD_height = 320;
    113c:	00805004 	movi	r2,320
    1140:	d0a6ce0d 	sth	r2,-25800(gp)


	LCD_Write_Command(0x0029);
    1144:	01000a44 	movi	r4,41
    1148:	0000e9c0 	call	e9c <LCD_Write_Command>

}
    114c:	0001883a 	nop
    1150:	e037883a 	mov	sp,fp
    1154:	dfc00117 	ldw	ra,4(sp)
    1158:	df000017 	ldw	fp,0(sp)
    115c:	dec00204 	addi	sp,sp,8
    1160:	f800283a 	ret

00001164 <transfer_LCD_no_dma>:

void transfer_LCD_no_dma( void* array,
		                  int width,
		                  int height) {
    1164:	defff904 	addi	sp,sp,-28
    1168:	dfc00615 	stw	ra,24(sp)
    116c:	df000515 	stw	fp,20(sp)
    1170:	df000504 	addi	fp,sp,20
    1174:	e13ffd15 	stw	r4,-12(fp)
    1178:	e17ffe15 	stw	r5,-8(fp)
    117c:	e1bfff15 	stw	r6,-4(fp)
	unsigned short *data_array = (unsigned short *)array;
    1180:	e0bffd17 	ldw	r2,-12(fp)
    1184:	e0bffc15 	stw	r2,-16(fp)
	unsigned int pixels;
	IOWR_32DIRECT(LCD_CTRL_BASE,LCD_Pict_width_reg,width);
    1188:	00804034 	movhi	r2,256
    118c:	10841e04 	addi	r2,r2,4216
    1190:	e0fffe17 	ldw	r3,-8(fp)
    1194:	10c00035 	stwio	r3,0(r2)
	LCD_Write_Command(0x002C); 	//command to begin writing to frame memory
    1198:	01000b04 	movi	r4,44
    119c:	0000e9c0 	call	e9c <LCD_Write_Command>
	for (pixels = 0 ; pixels < width*height ; pixels++)
    11a0:	e03ffb15 	stw	zero,-20(fp)
    11a4:	00000c06 	br	11d8 <transfer_LCD_no_dma+0x74>
		LCD_Write_Data(data_array[pixels]);
    11a8:	e0bffb17 	ldw	r2,-20(fp)
    11ac:	1085883a 	add	r2,r2,r2
    11b0:	1007883a 	mov	r3,r2
    11b4:	e0bffc17 	ldw	r2,-16(fp)
    11b8:	10c5883a 	add	r2,r2,r3
    11bc:	1080000b 	ldhu	r2,0(r2)
    11c0:	10bfffcc 	andi	r2,r2,65535
    11c4:	1009883a 	mov	r4,r2
    11c8:	0000ee00 	call	ee0 <LCD_Write_Data>
		                  int height) {
	unsigned short *data_array = (unsigned short *)array;
	unsigned int pixels;
	IOWR_32DIRECT(LCD_CTRL_BASE,LCD_Pict_width_reg,width);
	LCD_Write_Command(0x002C); 	//command to begin writing to frame memory
	for (pixels = 0 ; pixels < width*height ; pixels++)
    11cc:	e0bffb17 	ldw	r2,-20(fp)
    11d0:	10800044 	addi	r2,r2,1
    11d4:	e0bffb15 	stw	r2,-20(fp)
    11d8:	e0fffe17 	ldw	r3,-8(fp)
    11dc:	e0bfff17 	ldw	r2,-4(fp)
    11e0:	1885383a 	mul	r2,r3,r2
    11e4:	1007883a 	mov	r3,r2
    11e8:	e0bffb17 	ldw	r2,-20(fp)
    11ec:	10ffee36 	bltu	r2,r3,11a8 <transfer_LCD_no_dma+0x44>
		LCD_Write_Data(data_array[pixels]);
}
    11f0:	0001883a 	nop
    11f4:	e037883a 	mov	sp,fp
    11f8:	dfc00117 	ldw	ra,4(sp)
    11fc:	df000017 	ldw	fp,0(sp)
    1200:	dec00204 	addi	sp,sp,8
    1204:	f800283a 	ret

00001208 <transfer_LCD_with_dma>:

void transfer_LCD_with_dma(void *array,
		                   int width,
		                   int height,
		                   char grayscale) {
    1208:	defffa04 	addi	sp,sp,-24
    120c:	df000515 	stw	fp,20(sp)
    1210:	df000504 	addi	fp,sp,20
    1214:	e13ffc15 	stw	r4,-16(fp)
    1218:	e17ffd15 	stw	r5,-12(fp)
    121c:	e1bffe15 	stw	r6,-8(fp)
    1220:	3805883a 	mov	r2,r7
    1224:	e0bfff05 	stb	r2,-4(fp)
	unsigned short real_height = (height > LCD_height) ? LCD_height : height;
    1228:	d0a6ce0b 	ldhu	r2,-25800(gp)
    122c:	10bfffcc 	andi	r2,r2,65535
    1230:	e0fffe17 	ldw	r3,-8(fp)
    1234:	1880010e 	bge	r3,r2,123c <transfer_LCD_with_dma+0x34>
    1238:	1805883a 	mov	r2,r3
    123c:	e0bffb0d 	sth	r2,-20(fp)
	unsigned short real_width = (width > LCD_width) ? LCD_width : width;
    1240:	d0a6ce8b 	ldhu	r2,-25798(gp)
    1244:	10bfffcc 	andi	r2,r2,65535
    1248:	e0fffd17 	ldw	r3,-12(fp)
    124c:	1880010e 	bge	r3,r2,1254 <transfer_LCD_with_dma+0x4c>
    1250:	1805883a 	mov	r2,r3
    1254:	e0bffb8d 	sth	r2,-18(fp)
	IOWR_32DIRECT(LCD_CTRL_BASE,LCD_Pict_width_reg,width);
    1258:	00804034 	movhi	r2,256
    125c:	10841e04 	addi	r2,r2,4216
    1260:	e0fffd17 	ldw	r3,-12(fp)
    1264:	10c00035 	stwio	r3,0(r2)
	IOWR_32DIRECT(LCD_CTRL_BASE,LCD_IMAGE_POINTER_REG,(int)array);
    1268:	e0fffc17 	ldw	r3,-16(fp)
    126c:	00804034 	movhi	r2,256
    1270:	10841b04 	addi	r2,r2,4204
    1274:	10c00035 	stwio	r3,0(r2)
	IOWR_32DIRECT(LCD_CTRL_BASE,LCD_IMAGE_SIZE_REG,real_width*real_height);
    1278:	e0fffb8b 	ldhu	r3,-18(fp)
    127c:	e0bffb0b 	ldhu	r2,-20(fp)
    1280:	1887383a 	mul	r3,r3,r2
    1284:	00804034 	movhi	r2,256
    1288:	10841c04 	addi	r2,r2,4208
    128c:	10c00035 	stwio	r3,0(r2)
	if (grayscale==0)
    1290:	e0bfff07 	ldb	r2,-4(fp)
    1294:	1000051e 	bne	r2,zero,12ac <transfer_LCD_with_dma+0xa4>
		IOWR_16DIRECT(LCD_CTRL_BASE,LCD_CONTROL_REG,
    1298:	00c04004 	movi	r3,256
    129c:	00804034 	movhi	r2,256
    12a0:	10841a04 	addi	r2,r2,4200
    12a4:	10c0002d 	sthio	r3,0(r2)
				         LCD_RGB565_Mode|LCD_Color_Image);
	else
		IOWR_16DIRECT(LCD_CTRL_BASE,LCD_CONTROL_REG,
				         LCD_Sixteen_Bit|LCD_Start_DMA|
				         LCD_RGB565_Mode|LCD_GrayScale_Image);
}
    12a8:	00000406 	br	12bc <transfer_LCD_with_dma+0xb4>
	if (grayscale==0)
		IOWR_16DIRECT(LCD_CTRL_BASE,LCD_CONTROL_REG,
				         LCD_Sixteen_Bit|LCD_Start_DMA|
				         LCD_RGB565_Mode|LCD_Color_Image);
	else
		IOWR_16DIRECT(LCD_CTRL_BASE,LCD_CONTROL_REG,
    12ac:	00c04404 	movi	r3,272
    12b0:	00804034 	movhi	r2,256
    12b4:	10841a04 	addi	r2,r2,4200
    12b8:	10c0002d 	sthio	r3,0(r2)
				         LCD_Sixteen_Bit|LCD_Start_DMA|
				         LCD_RGB565_Mode|LCD_GrayScale_Image);
}
    12bc:	0001883a 	nop
    12c0:	e037883a 	mov	sp,fp
    12c4:	df000017 	ldw	fp,0(sp)
    12c8:	dec00104 	addi	sp,sp,4
    12cc:	f800283a 	ret

000012d0 <main>:
#include "vga.h"
#include "dipswitch.h"
#include "sobel.h"

int main()
{
    12d0:	defff304 	addi	sp,sp,-52
    12d4:	dfc00c15 	stw	ra,48(sp)
    12d8:	df000b15 	stw	fp,44(sp)
    12dc:	dc400a15 	stw	r17,40(sp)
    12e0:	dc000915 	stw	r16,36(sp)
    12e4:	df000b04 	addi	fp,sp,44
  unsigned short *image;
  unsigned char *grayscale;
  unsigned char current_mode;
  unsigned char mode;

	alt_u32 timestampStart = 0;
    12e8:	e03ff515 	stw	zero,-44(fp)
	alt_u32 timestampStop = 0;
    12ec:	e03ff615 	stw	zero,-40(fp)

	alt_timestamp_start();
    12f0:	0010c680 	call	10c68 <alt_timestamp_start>

  init_LCD();
    12f4:	0000f240 	call	f24 <init_LCD>
  init_camera();
    12f8:	00002800 	call	280 <init_camera>
  vga_set_swap(VGA_QuarterScreen|VGA_Grayscale);
    12fc:	01000604 	movi	r4,24
    1300:	0002d300 	call	2d30 <vga_set_swap>
  printf("Hello from Nios II!\n");
    1304:	01000074 	movhi	r4,1
    1308:	21094604 	addi	r4,r4,9496
    130c:	00036c80 	call	36c8 <puts>
  cam_get_profiling();
    1310:	00007fc0 	call	7fc <cam_get_profiling>
  buffer1 = (void *) malloc(cam_get_xsize()*cam_get_ysize());
    1314:	00007640 	call	764 <cam_get_xsize>
    1318:	143fffcc 	andi	r16,r2,65535
    131c:	00007b00 	call	7b0 <cam_get_ysize>
    1320:	10bfffcc 	andi	r2,r2,65535
    1324:	8085383a 	mul	r2,r16,r2
    1328:	1009883a 	mov	r4,r2
    132c:	0002d680 	call	2d68 <malloc>
    1330:	e0bff715 	stw	r2,-36(fp)
  buffer2 = (void *) malloc(cam_get_xsize()*cam_get_ysize());
    1334:	00007640 	call	764 <cam_get_xsize>
    1338:	143fffcc 	andi	r16,r2,65535
    133c:	00007b00 	call	7b0 <cam_get_ysize>
    1340:	10bfffcc 	andi	r2,r2,65535
    1344:	8085383a 	mul	r2,r16,r2
    1348:	1009883a 	mov	r4,r2
    134c:	0002d680 	call	2d68 <malloc>
    1350:	e0bff815 	stw	r2,-32(fp)
  buffer3 = (void *) malloc(cam_get_xsize()*cam_get_ysize());
    1354:	00007640 	call	764 <cam_get_xsize>
    1358:	143fffcc 	andi	r16,r2,65535
    135c:	00007b00 	call	7b0 <cam_get_ysize>
    1360:	10bfffcc 	andi	r2,r2,65535
    1364:	8085383a 	mul	r2,r16,r2
    1368:	1009883a 	mov	r4,r2
    136c:	0002d680 	call	2d68 <malloc>
    1370:	e0bff915 	stw	r2,-28(fp)
  buffer4 = (void *) malloc(cam_get_xsize()*cam_get_ysize());
    1374:	00007640 	call	764 <cam_get_xsize>
    1378:	143fffcc 	andi	r16,r2,65535
    137c:	00007b00 	call	7b0 <cam_get_ysize>
    1380:	10bfffcc 	andi	r2,r2,65535
    1384:	8085383a 	mul	r2,r16,r2
    1388:	1009883a 	mov	r4,r2
    138c:	0002d680 	call	2d68 <malloc>
    1390:	e0bffa15 	stw	r2,-24(fp)
  cam_set_image_pointer(0,buffer1);
    1394:	e17ff717 	ldw	r5,-36(fp)
    1398:	0009883a 	mov	r4,zero
    139c:	00008a40 	call	8a4 <cam_set_image_pointer>
  cam_set_image_pointer(1,buffer2);
    13a0:	e17ff817 	ldw	r5,-32(fp)
    13a4:	01000044 	movi	r4,1
    13a8:	00008a40 	call	8a4 <cam_set_image_pointer>
  cam_set_image_pointer(2,buffer3);
    13ac:	e17ff917 	ldw	r5,-28(fp)
    13b0:	01000084 	movi	r4,2
    13b4:	00008a40 	call	8a4 <cam_set_image_pointer>
  cam_set_image_pointer(3,buffer4);
    13b8:	e17ffa17 	ldw	r5,-24(fp)
    13bc:	010000c4 	movi	r4,3
    13c0:	00008a40 	call	8a4 <cam_set_image_pointer>
  enable_continues_mode();
    13c4:	00009fc0 	call	9fc <enable_continues_mode>
  init_sobel_arrays(cam_get_xsize()>>1,cam_get_ysize());
    13c8:	00007640 	call	764 <cam_get_xsize>
    13cc:	10bfffcc 	andi	r2,r2,65535
    13d0:	1004d07a 	srli	r2,r2,1
    13d4:	143fffcc 	andi	r16,r2,65535
    13d8:	00007b00 	call	7b0 <cam_get_ysize>
    13dc:	10bfffcc 	andi	r2,r2,65535
    13e0:	100b883a 	mov	r5,r2
    13e4:	8009883a 	mov	r4,r16
    13e8:	00018100 	call	1810 <init_sobel_arrays>
  do {
	  if (new_image_available() != 0) {
    13ec:	0000a2c0 	call	a2c <new_image_available>
    13f0:	10803fcc 	andi	r2,r2,255
    13f4:	1080201c 	xori	r2,r2,128
    13f8:	10bfe004 	addi	r2,r2,-128
    13fc:	103ffb26 	beq	r2,zero,13ec <main+0x11c>
		  if (current_image_valid()!=0) {
    1400:	000094c0 	call	94c <current_image_valid>
    1404:	10bfffcc 	andi	r2,r2,65535
    1408:	10a0001c 	xori	r2,r2,32768
    140c:	10a00004 	addi	r2,r2,-32768
    1410:	103ff626 	beq	r2,zero,13ec <main+0x11c>
			  current_mode = DIPSW_get_value();
    1414:	0000a840 	call	a84 <DIPSW_get_value>
    1418:	e0bffb05 	stb	r2,-20(fp)
			  mode = current_mode&(DIPSW_SW1_MASK|DIPSW_SW3_MASK|DIPSW_SW2_MASK);
    141c:	e0bffb03 	ldbu	r2,-20(fp)
    1420:	108001cc 	andi	r2,r2,7
    1424:	e0bffb45 	stb	r2,-19(fp)
			  image = (unsigned short*)current_image_pointer();
    1428:	00009840 	call	984 <current_image_pointer>
    142c:	e0bffc15 	stw	r2,-16(fp)
		      switch (mode) {
    1430:	e0bffb43 	ldbu	r2,-19(fp)
    1434:	10c00060 	cmpeqi	r3,r2,1
    1438:	1800211e 	bne	r3,zero,14c0 <main+0x1f0>
    143c:	10c00088 	cmpgei	r3,r2,2
    1440:	1800021e 	bne	r3,zero,144c <main+0x17c>
    1444:	10000626 	beq	r2,zero,1460 <main+0x190>
    1448:	00009206 	br	1694 <main+0x3c4>
    144c:	10c000a0 	cmpeqi	r3,r2,2
    1450:	18003e1e 	bne	r3,zero,154c <main+0x27c>
    1454:	108000e0 	cmpeqi	r2,r2,3
    1458:	1000641e 	bne	r2,zero,15ec <main+0x31c>
    145c:	00008d06 	br	1694 <main+0x3c4>
		      case 0 : transfer_LCD_with_dma(&image[16520],
    1460:	e0fffc17 	ldw	r3,-16(fp)
    1464:	00a04414 	movui	r2,33040
    1468:	18a1883a 	add	r16,r3,r2
		                	cam_get_xsize()>>1,
    146c:	00007640 	call	764 <cam_get_xsize>
		  if (current_image_valid()!=0) {
			  current_mode = DIPSW_get_value();
			  mode = current_mode&(DIPSW_SW1_MASK|DIPSW_SW3_MASK|DIPSW_SW2_MASK);
			  image = (unsigned short*)current_image_pointer();
		      switch (mode) {
		      case 0 : transfer_LCD_with_dma(&image[16520],
    1470:	10bfffcc 	andi	r2,r2,65535
    1474:	1004d07a 	srli	r2,r2,1
    1478:	147fffcc 	andi	r17,r2,65535
		                	cam_get_xsize()>>1,
		                	cam_get_ysize(),0);
    147c:	00007b00 	call	7b0 <cam_get_ysize>
		  if (current_image_valid()!=0) {
			  current_mode = DIPSW_get_value();
			  mode = current_mode&(DIPSW_SW1_MASK|DIPSW_SW3_MASK|DIPSW_SW2_MASK);
			  image = (unsigned short*)current_image_pointer();
		      switch (mode) {
		      case 0 : transfer_LCD_with_dma(&image[16520],
    1480:	10bfffcc 	andi	r2,r2,65535
    1484:	000f883a 	mov	r7,zero
    1488:	100d883a 	mov	r6,r2
    148c:	880b883a 	mov	r5,r17
    1490:	8009883a 	mov	r4,r16
    1494:	00012080 	call	1208 <transfer_LCD_with_dma>
		                	cam_get_xsize()>>1,
		                	cam_get_ysize(),0);
		      	  	   if ((current_mode&DIPSW_SW8_MASK)!=0) {
    1498:	e0bffb03 	ldbu	r2,-20(fp)
    149c:	10803fcc 	andi	r2,r2,255
    14a0:	1080201c 	xori	r2,r2,128
    14a4:	10bfe004 	addi	r2,r2,-128
    14a8:	1000cf0e 	bge	r2,zero,17e8 <main+0x518>
		      	  		  vga_set_swap(VGA_QuarterScreen);
    14ac:	01000204 	movi	r4,8
    14b0:	0002d300 	call	2d30 <vga_set_swap>
		      	  		  vga_set_pointer(image);
    14b4:	e13ffc17 	ldw	r4,-16(fp)
    14b8:	0002cfc0 	call	2cfc <vga_set_pointer>
		      	  	   }
		      	  	   break;
    14bc:	0000ca06 	br	17e8 <main+0x518>
		      case 1 : conv_grayscale((void *)image,
		    		                  cam_get_xsize()>>1,
    14c0:	00007640 	call	764 <cam_get_xsize>
		      	  	   if ((current_mode&DIPSW_SW8_MASK)!=0) {
		      	  		  vga_set_swap(VGA_QuarterScreen);
		      	  		  vga_set_pointer(image);
		      	  	   }
		      	  	   break;
		      case 1 : conv_grayscale((void *)image,
    14c4:	10bfffcc 	andi	r2,r2,65535
    14c8:	1004d07a 	srli	r2,r2,1
    14cc:	143fffcc 	andi	r16,r2,65535
		    		                  cam_get_xsize()>>1,
		    		                  cam_get_ysize());
    14d0:	00007b00 	call	7b0 <cam_get_ysize>
		      	  	   if ((current_mode&DIPSW_SW8_MASK)!=0) {
		      	  		  vga_set_swap(VGA_QuarterScreen);
		      	  		  vga_set_pointer(image);
		      	  	   }
		      	  	   break;
		      case 1 : conv_grayscale((void *)image,
    14d4:	10bfffcc 	andi	r2,r2,65535
    14d8:	100d883a 	mov	r6,r2
    14dc:	800b883a 	mov	r5,r16
    14e0:	e13ffc17 	ldw	r4,-16(fp)
    14e4:	0000ab40 	call	ab4 <conv_grayscale>
		    		                  cam_get_xsize()>>1,
		    		                  cam_get_ysize());
		               grayscale = get_grayscale_picture();
    14e8:	0000c680 	call	c68 <get_grayscale_picture>
    14ec:	e0bffd15 	stw	r2,-12(fp)
		               transfer_LCD_with_dma(&grayscale[16520],
    14f0:	e0bffd17 	ldw	r2,-12(fp)
    14f4:	14102204 	addi	r16,r2,16520
		      		                	cam_get_xsize()>>1,
    14f8:	00007640 	call	764 <cam_get_xsize>
		      	  	   break;
		      case 1 : conv_grayscale((void *)image,
		    		                  cam_get_xsize()>>1,
		    		                  cam_get_ysize());
		               grayscale = get_grayscale_picture();
		               transfer_LCD_with_dma(&grayscale[16520],
    14fc:	10bfffcc 	andi	r2,r2,65535
    1500:	1004d07a 	srli	r2,r2,1
    1504:	147fffcc 	andi	r17,r2,65535
		      		                	cam_get_xsize()>>1,
		      		                	cam_get_ysize(),1);
    1508:	00007b00 	call	7b0 <cam_get_ysize>
		      	  	   break;
		      case 1 : conv_grayscale((void *)image,
		    		                  cam_get_xsize()>>1,
		    		                  cam_get_ysize());
		               grayscale = get_grayscale_picture();
		               transfer_LCD_with_dma(&grayscale[16520],
    150c:	10bfffcc 	andi	r2,r2,65535
    1510:	01c00044 	movi	r7,1
    1514:	100d883a 	mov	r6,r2
    1518:	880b883a 	mov	r5,r17
    151c:	8009883a 	mov	r4,r16
    1520:	00012080 	call	1208 <transfer_LCD_with_dma>
		      		                	cam_get_xsize()>>1,
		      		                	cam_get_ysize(),1);
		      	  	   if ((current_mode&DIPSW_SW8_MASK)!=0) {
    1524:	e0bffb03 	ldbu	r2,-20(fp)
    1528:	10803fcc 	andi	r2,r2,255
    152c:	1080201c 	xori	r2,r2,128
    1530:	10bfe004 	addi	r2,r2,-128
    1534:	1000ae0e 	bge	r2,zero,17f0 <main+0x520>
		      	  		  vga_set_swap(VGA_QuarterScreen|VGA_Grayscale);
    1538:	01000604 	movi	r4,24
    153c:	0002d300 	call	2d30 <vga_set_swap>
		      	  		  vga_set_pointer(grayscale);
    1540:	e13ffd17 	ldw	r4,-12(fp)
    1544:	0002cfc0 	call	2cfc <vga_set_pointer>
		      	  	   }
		      	  	   break;
    1548:	0000a906 	br	17f0 <main+0x520>
		      case 2 : conv_grayscale((void *)image,
		    		                  cam_get_xsize()>>1,
    154c:	00007640 	call	764 <cam_get_xsize>
		      	  	   if ((current_mode&DIPSW_SW8_MASK)!=0) {
		      	  		  vga_set_swap(VGA_QuarterScreen|VGA_Grayscale);
		      	  		  vga_set_pointer(grayscale);
		      	  	   }
		      	  	   break;
		      case 2 : conv_grayscale((void *)image,
    1550:	10bfffcc 	andi	r2,r2,65535
    1554:	1004d07a 	srli	r2,r2,1
    1558:	143fffcc 	andi	r16,r2,65535
		    		                  cam_get_xsize()>>1,
		    		                  cam_get_ysize());
    155c:	00007b00 	call	7b0 <cam_get_ysize>
		      	  	   if ((current_mode&DIPSW_SW8_MASK)!=0) {
		      	  		  vga_set_swap(VGA_QuarterScreen|VGA_Grayscale);
		      	  		  vga_set_pointer(grayscale);
		      	  	   }
		      	  	   break;
		      case 2 : conv_grayscale((void *)image,
    1560:	10bfffcc 	andi	r2,r2,65535
    1564:	100d883a 	mov	r6,r2
    1568:	800b883a 	mov	r5,r16
    156c:	e13ffc17 	ldw	r4,-16(fp)
    1570:	0000ab40 	call	ab4 <conv_grayscale>
		    		                  cam_get_xsize()>>1,
		    		                  cam_get_ysize());
		               grayscale = get_grayscale_picture();
    1574:	0000c680 	call	c68 <get_grayscale_picture>
    1578:	e0bffd15 	stw	r2,-12(fp)
		               sobel_x_with_rgb(grayscale);
    157c:	e13ffd17 	ldw	r4,-12(fp)
    1580:	00026ec0 	call	26ec <sobel_x_with_rgb>
		               image = GetSobel_rgb();
    1584:	0002cbc0 	call	2cbc <GetSobel_rgb>
    1588:	e0bffc15 	stw	r2,-16(fp)
		               transfer_LCD_with_dma(&image[16520],
    158c:	e0fffc17 	ldw	r3,-16(fp)
    1590:	00a04414 	movui	r2,33040
    1594:	18a1883a 	add	r16,r3,r2
		      		                	cam_get_xsize()>>1,
    1598:	00007640 	call	764 <cam_get_xsize>
		    		                  cam_get_xsize()>>1,
		    		                  cam_get_ysize());
		               grayscale = get_grayscale_picture();
		               sobel_x_with_rgb(grayscale);
		               image = GetSobel_rgb();
		               transfer_LCD_with_dma(&image[16520],
    159c:	10bfffcc 	andi	r2,r2,65535
    15a0:	1004d07a 	srli	r2,r2,1
    15a4:	147fffcc 	andi	r17,r2,65535
		      		                	cam_get_xsize()>>1,
		      		                	cam_get_ysize(),0);
    15a8:	00007b00 	call	7b0 <cam_get_ysize>
		    		                  cam_get_xsize()>>1,
		    		                  cam_get_ysize());
		               grayscale = get_grayscale_picture();
		               sobel_x_with_rgb(grayscale);
		               image = GetSobel_rgb();
		               transfer_LCD_with_dma(&image[16520],
    15ac:	10bfffcc 	andi	r2,r2,65535
    15b0:	000f883a 	mov	r7,zero
    15b4:	100d883a 	mov	r6,r2
    15b8:	880b883a 	mov	r5,r17
    15bc:	8009883a 	mov	r4,r16
    15c0:	00012080 	call	1208 <transfer_LCD_with_dma>
		      		                	cam_get_xsize()>>1,
		      		                	cam_get_ysize(),0);
		      	  	   if ((current_mode&DIPSW_SW8_MASK)!=0) {
    15c4:	e0bffb03 	ldbu	r2,-20(fp)
    15c8:	10803fcc 	andi	r2,r2,255
    15cc:	1080201c 	xori	r2,r2,128
    15d0:	10bfe004 	addi	r2,r2,-128
    15d4:	1000880e 	bge	r2,zero,17f8 <main+0x528>
		      	  		  vga_set_swap(VGA_QuarterScreen);
    15d8:	01000204 	movi	r4,8
    15dc:	0002d300 	call	2d30 <vga_set_swap>
		      	  		  vga_set_pointer(image);
    15e0:	e13ffc17 	ldw	r4,-16(fp)
    15e4:	0002cfc0 	call	2cfc <vga_set_pointer>
		      	  	   }
		      	  	   break;
    15e8:	00008306 	br	17f8 <main+0x528>
		      case 3 : conv_grayscale((void *)image,
		    		                  cam_get_xsize()>>1,
    15ec:	00007640 	call	764 <cam_get_xsize>
		      	  	   if ((current_mode&DIPSW_SW8_MASK)!=0) {
		      	  		  vga_set_swap(VGA_QuarterScreen);
		      	  		  vga_set_pointer(image);
		      	  	   }
		      	  	   break;
		      case 3 : conv_grayscale((void *)image,
    15f0:	10bfffcc 	andi	r2,r2,65535
    15f4:	1004d07a 	srli	r2,r2,1
    15f8:	143fffcc 	andi	r16,r2,65535
		    		                  cam_get_xsize()>>1,
		    		                  cam_get_ysize());
    15fc:	00007b00 	call	7b0 <cam_get_ysize>
		      	  	   if ((current_mode&DIPSW_SW8_MASK)!=0) {
		      	  		  vga_set_swap(VGA_QuarterScreen);
		      	  		  vga_set_pointer(image);
		      	  	   }
		      	  	   break;
		      case 3 : conv_grayscale((void *)image,
    1600:	10bfffcc 	andi	r2,r2,65535
    1604:	100d883a 	mov	r6,r2
    1608:	800b883a 	mov	r5,r16
    160c:	e13ffc17 	ldw	r4,-16(fp)
    1610:	0000ab40 	call	ab4 <conv_grayscale>
		    		                  cam_get_xsize()>>1,
		    		                  cam_get_ysize());
		               grayscale = get_grayscale_picture();
    1614:	0000c680 	call	c68 <get_grayscale_picture>
    1618:	e0bffd15 	stw	r2,-12(fp)
		               sobel_x(grayscale);
    161c:	e13ffd17 	ldw	r4,-12(fp)
    1620:	00024a80 	call	24a8 <sobel_x>
		               sobel_y_with_rgb(grayscale);
    1624:	e13ffd17 	ldw	r4,-12(fp)
    1628:	0002a6c0 	call	2a6c <sobel_y_with_rgb>
		               image = GetSobel_rgb();
    162c:	0002cbc0 	call	2cbc <GetSobel_rgb>
    1630:	e0bffc15 	stw	r2,-16(fp)
		               transfer_LCD_with_dma(&image[16520],
    1634:	e0fffc17 	ldw	r3,-16(fp)
    1638:	00a04414 	movui	r2,33040
    163c:	18a1883a 	add	r16,r3,r2
		      		                	cam_get_xsize()>>1,
    1640:	00007640 	call	764 <cam_get_xsize>
		    		                  cam_get_ysize());
		               grayscale = get_grayscale_picture();
		               sobel_x(grayscale);
		               sobel_y_with_rgb(grayscale);
		               image = GetSobel_rgb();
		               transfer_LCD_with_dma(&image[16520],
    1644:	10bfffcc 	andi	r2,r2,65535
    1648:	1004d07a 	srli	r2,r2,1
    164c:	147fffcc 	andi	r17,r2,65535
		      		                	cam_get_xsize()>>1,
		      		                	cam_get_ysize(),0);
    1650:	00007b00 	call	7b0 <cam_get_ysize>
		    		                  cam_get_ysize());
		               grayscale = get_grayscale_picture();
		               sobel_x(grayscale);
		               sobel_y_with_rgb(grayscale);
		               image = GetSobel_rgb();
		               transfer_LCD_with_dma(&image[16520],
    1654:	10bfffcc 	andi	r2,r2,65535
    1658:	000f883a 	mov	r7,zero
    165c:	100d883a 	mov	r6,r2
    1660:	880b883a 	mov	r5,r17
    1664:	8009883a 	mov	r4,r16
    1668:	00012080 	call	1208 <transfer_LCD_with_dma>
		      		                	cam_get_xsize()>>1,
		      		                	cam_get_ysize(),0);
		      	  	   if ((current_mode&DIPSW_SW8_MASK)!=0) {
    166c:	e0bffb03 	ldbu	r2,-20(fp)
    1670:	10803fcc 	andi	r2,r2,255
    1674:	1080201c 	xori	r2,r2,128
    1678:	10bfe004 	addi	r2,r2,-128
    167c:	1000600e 	bge	r2,zero,1800 <main+0x530>
		      	  		  vga_set_swap(VGA_QuarterScreen);
    1680:	01000204 	movi	r4,8
    1684:	0002d300 	call	2d30 <vga_set_swap>
		      	  		  vga_set_pointer(image);
    1688:	e13ffc17 	ldw	r4,-16(fp)
    168c:	0002cfc0 	call	2cfc <vga_set_pointer>
		      	  	   }
		      	  	   break;
    1690:	00005b06 	br	1800 <main+0x530>
		      default:
		    	  timestampStart = alt_timestamp();
    1694:	0010ce00 	call	10ce0 <alt_timestamp>
    1698:	e0bff515 	stw	r2,-44(fp)
		    	  conv_grayscale((void *)image,
	                                  cam_get_xsize()>>1,
    169c:	00007640 	call	764 <cam_get_xsize>
		      	  		  vga_set_pointer(image);
		      	  	   }
		      	  	   break;
		      default:
		    	  timestampStart = alt_timestamp();
		    	  conv_grayscale((void *)image,
    16a0:	10bfffcc 	andi	r2,r2,65535
    16a4:	1004d07a 	srli	r2,r2,1
    16a8:	143fffcc 	andi	r16,r2,65535
	                                  cam_get_xsize()>>1,
	                                  cam_get_ysize());
    16ac:	00007b00 	call	7b0 <cam_get_ysize>
		      	  		  vga_set_pointer(image);
		      	  	   }
		      	  	   break;
		      default:
		    	  timestampStart = alt_timestamp();
		    	  conv_grayscale((void *)image,
    16b0:	10bfffcc 	andi	r2,r2,65535
    16b4:	100d883a 	mov	r6,r2
    16b8:	800b883a 	mov	r5,r16
    16bc:	e13ffc17 	ldw	r4,-16(fp)
    16c0:	0000ab40 	call	ab4 <conv_grayscale>
	                                  cam_get_xsize()>>1,
	                                  cam_get_ysize());
		    	  timestampStop = alt_timestamp();
    16c4:	0010ce00 	call	10ce0 <alt_timestamp>
    16c8:	e0bff615 	stw	r2,-40(fp)
		    	  printf("conv_grayscale (cycles) : %u\n", timestampStop-timestampStart);
    16cc:	e0fff617 	ldw	r3,-40(fp)
    16d0:	e0bff517 	ldw	r2,-44(fp)
    16d4:	1885c83a 	sub	r2,r3,r2
    16d8:	100b883a 	mov	r5,r2
    16dc:	01000074 	movhi	r4,1
    16e0:	21094b04 	addi	r4,r4,9516
    16e4:	00035cc0 	call	35cc <printf>

                       grayscale = get_grayscale_picture();
    16e8:	0000c680 	call	c68 <get_grayscale_picture>
    16ec:	e0bffd15 	stw	r2,-12(fp)


     		    	  timestampStart = alt_timestamp();
    16f0:	0010ce00 	call	10ce0 <alt_timestamp>
    16f4:	e0bff515 	stw	r2,-44(fp)
                      //sobel_x(grayscale);
     		    	  //sobel_x_inline(grayscale);
     		    	  sobel_complete(grayscale);
    16f8:	e13ffd17 	ldw	r4,-12(fp)
    16fc:	00019800 	call	1980 <sobel_complete>
     		    	  timestampStop = alt_timestamp();
    1700:	0010ce00 	call	10ce0 <alt_timestamp>
    1704:	e0bff615 	stw	r2,-40(fp)
     		    	  printf("sobel_x (cycles) : %u\n", timestampStop-timestampStart);
    1708:	e0fff617 	ldw	r3,-40(fp)
    170c:	e0bff517 	ldw	r2,-44(fp)
    1710:	1885c83a 	sub	r2,r3,r2
    1714:	100b883a 	mov	r5,r2
    1718:	01000074 	movhi	r4,1
    171c:	21095304 	addi	r4,r4,9548
    1720:	00035cc0 	call	35cc <printf>


    		    	  timestampStart = alt_timestamp();
    1724:	0010ce00 	call	10ce0 <alt_timestamp>
    1728:	e0bff515 	stw	r2,-44(fp)
                      //sobel_y(grayscale);
                      //sobel_y_inline(grayscale);
     		    	  timestampStop = alt_timestamp();
    172c:	0010ce00 	call	10ce0 <alt_timestamp>
    1730:	e0bff615 	stw	r2,-40(fp)
     		    	  printf("sobel_y (cycles) : %u\n", timestampStop-timestampStart);
    1734:	e0fff617 	ldw	r3,-40(fp)
    1738:	e0bff517 	ldw	r2,-44(fp)
    173c:	1885c83a 	sub	r2,r3,r2
    1740:	100b883a 	mov	r5,r2
    1744:	01000074 	movhi	r4,1
    1748:	21095904 	addi	r4,r4,9572
    174c:	00035cc0 	call	35cc <printf>


    		    	  timestampStart = alt_timestamp();
    1750:	0010ce00 	call	10ce0 <alt_timestamp>
    1754:	e0bff515 	stw	r2,-44(fp)
                       sobel_threshold(128);
    1758:	01002004 	movi	r4,128
    175c:	0002ba80 	call	2ba8 <sobel_threshold>
                      timestampStop = alt_timestamp();
    1760:	0010ce00 	call	10ce0 <alt_timestamp>
    1764:	e0bff615 	stw	r2,-40(fp)
      		    	  printf("sobel_threshold (cycles) : %u\n", timestampStop-timestampStart);
    1768:	e0fff617 	ldw	r3,-40(fp)
    176c:	e0bff517 	ldw	r2,-44(fp)
    1770:	1885c83a 	sub	r2,r3,r2
    1774:	100b883a 	mov	r5,r2
    1778:	01000074 	movhi	r4,1
    177c:	21095f04 	addi	r4,r4,9596
    1780:	00035cc0 	call	35cc <printf>


                       grayscale=GetSobelResult();
    1784:	0002cdc0 	call	2cdc <GetSobelResult>
    1788:	e0bffd15 	stw	r2,-12(fp)
		               transfer_LCD_with_dma(&grayscale[16520],
    178c:	e0bffd17 	ldw	r2,-12(fp)
    1790:	14102204 	addi	r16,r2,16520
		      		                	cam_get_xsize()>>1,
    1794:	00007640 	call	764 <cam_get_xsize>
                      timestampStop = alt_timestamp();
      		    	  printf("sobel_threshold (cycles) : %u\n", timestampStop-timestampStart);


                       grayscale=GetSobelResult();
		               transfer_LCD_with_dma(&grayscale[16520],
    1798:	10bfffcc 	andi	r2,r2,65535
    179c:	1004d07a 	srli	r2,r2,1
    17a0:	147fffcc 	andi	r17,r2,65535
		      		                	cam_get_xsize()>>1,
		      		                	cam_get_ysize(),1);
    17a4:	00007b00 	call	7b0 <cam_get_ysize>
                      timestampStop = alt_timestamp();
      		    	  printf("sobel_threshold (cycles) : %u\n", timestampStop-timestampStart);


                       grayscale=GetSobelResult();
		               transfer_LCD_with_dma(&grayscale[16520],
    17a8:	10bfffcc 	andi	r2,r2,65535
    17ac:	01c00044 	movi	r7,1
    17b0:	100d883a 	mov	r6,r2
    17b4:	880b883a 	mov	r5,r17
    17b8:	8009883a 	mov	r4,r16
    17bc:	00012080 	call	1208 <transfer_LCD_with_dma>
		      		                	cam_get_xsize()>>1,
		      		                	cam_get_ysize(),1);
		      	  	   if ((current_mode&DIPSW_SW8_MASK)!=0) {
    17c0:	e0bffb03 	ldbu	r2,-20(fp)
    17c4:	10803fcc 	andi	r2,r2,255
    17c8:	1080201c 	xori	r2,r2,128
    17cc:	10bfe004 	addi	r2,r2,-128
    17d0:	10000d0e 	bge	r2,zero,1808 <main+0x538>
		      	  		  vga_set_swap(VGA_QuarterScreen|VGA_Grayscale);
    17d4:	01000604 	movi	r4,24
    17d8:	0002d300 	call	2d30 <vga_set_swap>
		      	  		  vga_set_pointer(grayscale);
    17dc:	e13ffd17 	ldw	r4,-12(fp)
    17e0:	0002cfc0 	call	2cfc <vga_set_pointer>
		      	  	   }
		      	  	   break;
    17e4:	00000806 	br	1808 <main+0x538>
		                	cam_get_ysize(),0);
		      	  	   if ((current_mode&DIPSW_SW8_MASK)!=0) {
		      	  		  vga_set_swap(VGA_QuarterScreen);
		      	  		  vga_set_pointer(image);
		      	  	   }
		      	  	   break;
    17e8:	0001883a 	nop
    17ec:	003eff06 	br	13ec <main+0x11c>
		      		                	cam_get_ysize(),1);
		      	  	   if ((current_mode&DIPSW_SW8_MASK)!=0) {
		      	  		  vga_set_swap(VGA_QuarterScreen|VGA_Grayscale);
		      	  		  vga_set_pointer(grayscale);
		      	  	   }
		      	  	   break;
    17f0:	0001883a 	nop
    17f4:	003efd06 	br	13ec <main+0x11c>
		      		                	cam_get_ysize(),0);
		      	  	   if ((current_mode&DIPSW_SW8_MASK)!=0) {
		      	  		  vga_set_swap(VGA_QuarterScreen);
		      	  		  vga_set_pointer(image);
		      	  	   }
		      	  	   break;
    17f8:	0001883a 	nop
    17fc:	003efb06 	br	13ec <main+0x11c>
		      		                	cam_get_ysize(),0);
		      	  	   if ((current_mode&DIPSW_SW8_MASK)!=0) {
		      	  		  vga_set_swap(VGA_QuarterScreen);
		      	  		  vga_set_pointer(image);
		      	  	   }
		      	  	   break;
    1800:	0001883a 	nop
    1804:	003ef906 	br	13ec <main+0x11c>
		      		                	cam_get_ysize(),1);
		      	  	   if ((current_mode&DIPSW_SW8_MASK)!=0) {
		      	  		  vga_set_swap(VGA_QuarterScreen|VGA_Grayscale);
		      	  		  vga_set_pointer(grayscale);
		      	  	   }
		      	  	   break;
    1808:	0001883a 	nop
		      }
		  }
	  }
  } while (1);
    180c:	003ef706 	br	13ec <main+0x11c>

00001810 <init_sobel_arrays>:
unsigned short *sobel_rgb565;
unsigned char *sobel_result;
int sobel_width;
int sobel_height;

void init_sobel_arrays(int width , int height) {
    1810:	defffb04 	addi	sp,sp,-20
    1814:	dfc00415 	stw	ra,16(sp)
    1818:	df000315 	stw	fp,12(sp)
    181c:	df000304 	addi	fp,sp,12
    1820:	e13ffe15 	stw	r4,-8(fp)
    1824:	e17fff15 	stw	r5,-4(fp)
	int loop;
	sobel_width = width;
    1828:	e0bffe17 	ldw	r2,-8(fp)
    182c:	d0a6cf15 	stw	r2,-25796(gp)
	sobel_height = height;
    1830:	e0bfff17 	ldw	r2,-4(fp)
    1834:	d0a6d115 	stw	r2,-25788(gp)
	if (sobel_x_result != NULL)
    1838:	d0a6d217 	ldw	r2,-25784(gp)
    183c:	10000326 	beq	r2,zero,184c <init_sobel_arrays+0x3c>
		free(sobel_x_result);
    1840:	d0a6d217 	ldw	r2,-25784(gp)
    1844:	1009883a 	mov	r4,r2
    1848:	0002d7c0 	call	2d7c <free>
	sobel_x_result = (short *)malloc(width*height*sizeof(short));
    184c:	e0fffe17 	ldw	r3,-8(fp)
    1850:	e0bfff17 	ldw	r2,-4(fp)
    1854:	1885383a 	mul	r2,r3,r2
    1858:	1085883a 	add	r2,r2,r2
    185c:	1009883a 	mov	r4,r2
    1860:	0002d680 	call	2d68 <malloc>
    1864:	d0a6d215 	stw	r2,-25784(gp)
	if (sobel_y_result != NULL)
    1868:	d0a6d317 	ldw	r2,-25780(gp)
    186c:	10000326 	beq	r2,zero,187c <init_sobel_arrays+0x6c>
		free(sobel_y_result);
    1870:	d0a6d317 	ldw	r2,-25780(gp)
    1874:	1009883a 	mov	r4,r2
    1878:	0002d7c0 	call	2d7c <free>
	sobel_y_result = (short *)malloc(width*height*sizeof(short));
    187c:	e0fffe17 	ldw	r3,-8(fp)
    1880:	e0bfff17 	ldw	r2,-4(fp)
    1884:	1885383a 	mul	r2,r3,r2
    1888:	1085883a 	add	r2,r2,r2
    188c:	1009883a 	mov	r4,r2
    1890:	0002d680 	call	2d68 <malloc>
    1894:	d0a6d315 	stw	r2,-25780(gp)
	if (sobel_result != NULL)
    1898:	d0a6d017 	ldw	r2,-25792(gp)
    189c:	10000326 	beq	r2,zero,18ac <init_sobel_arrays+0x9c>
		free(sobel_result);
    18a0:	d0a6d017 	ldw	r2,-25792(gp)
    18a4:	1009883a 	mov	r4,r2
    18a8:	0002d7c0 	call	2d7c <free>
	sobel_result = (unsigned char *)malloc(width*height*sizeof(unsigned char));
    18ac:	e0fffe17 	ldw	r3,-8(fp)
    18b0:	e0bfff17 	ldw	r2,-4(fp)
    18b4:	1885383a 	mul	r2,r3,r2
    18b8:	1009883a 	mov	r4,r2
    18bc:	0002d680 	call	2d68 <malloc>
    18c0:	d0a6d015 	stw	r2,-25792(gp)
	if (sobel_rgb565 != NULL)
    18c4:	d0a6d417 	ldw	r2,-25776(gp)
    18c8:	10000326 	beq	r2,zero,18d8 <init_sobel_arrays+0xc8>
		free(sobel_rgb565);
    18cc:	d0a6d417 	ldw	r2,-25776(gp)
    18d0:	1009883a 	mov	r4,r2
    18d4:	0002d7c0 	call	2d7c <free>
	sobel_rgb565 = (unsigned short *)malloc(width*height*sizeof(unsigned short));
    18d8:	e0fffe17 	ldw	r3,-8(fp)
    18dc:	e0bfff17 	ldw	r2,-4(fp)
    18e0:	1885383a 	mul	r2,r3,r2
    18e4:	1085883a 	add	r2,r2,r2
    18e8:	1009883a 	mov	r4,r2
    18ec:	0002d680 	call	2d68 <malloc>
    18f0:	d0a6d415 	stw	r2,-25776(gp)
	for (loop = 0 ; loop < width*height ; loop++) {
    18f4:	e03ffd15 	stw	zero,-12(fp)
    18f8:	00001606 	br	1954 <init_sobel_arrays+0x144>
		sobel_x_result[loop] = 0;
    18fc:	d0e6d217 	ldw	r3,-25784(gp)
    1900:	e0bffd17 	ldw	r2,-12(fp)
    1904:	1085883a 	add	r2,r2,r2
    1908:	1885883a 	add	r2,r3,r2
    190c:	1000000d 	sth	zero,0(r2)
		sobel_y_result[loop] = 0;
    1910:	d0e6d317 	ldw	r3,-25780(gp)
    1914:	e0bffd17 	ldw	r2,-12(fp)
    1918:	1085883a 	add	r2,r2,r2
    191c:	1885883a 	add	r2,r3,r2
    1920:	1000000d 	sth	zero,0(r2)
		sobel_result[loop] = 0;
    1924:	d0e6d017 	ldw	r3,-25792(gp)
    1928:	e0bffd17 	ldw	r2,-12(fp)
    192c:	1885883a 	add	r2,r3,r2
    1930:	10000005 	stb	zero,0(r2)
		sobel_rgb565[loop] = 0;
    1934:	d0e6d417 	ldw	r3,-25776(gp)
    1938:	e0bffd17 	ldw	r2,-12(fp)
    193c:	1085883a 	add	r2,r2,r2
    1940:	1885883a 	add	r2,r3,r2
    1944:	1000000d 	sth	zero,0(r2)
		free(sobel_result);
	sobel_result = (unsigned char *)malloc(width*height*sizeof(unsigned char));
	if (sobel_rgb565 != NULL)
		free(sobel_rgb565);
	sobel_rgb565 = (unsigned short *)malloc(width*height*sizeof(unsigned short));
	for (loop = 0 ; loop < width*height ; loop++) {
    1948:	e0bffd17 	ldw	r2,-12(fp)
    194c:	10800044 	addi	r2,r2,1
    1950:	e0bffd15 	stw	r2,-12(fp)
    1954:	e0fffe17 	ldw	r3,-8(fp)
    1958:	e0bfff17 	ldw	r2,-4(fp)
    195c:	1885383a 	mul	r2,r3,r2
    1960:	e0fffd17 	ldw	r3,-12(fp)
    1964:	18bfe516 	blt	r3,r2,18fc <init_sobel_arrays+0xec>
		sobel_x_result[loop] = 0;
		sobel_y_result[loop] = 0;
		sobel_result[loop] = 0;
		sobel_rgb565[loop] = 0;
	}
}
    1968:	0001883a 	nop
    196c:	e037883a 	mov	sp,fp
    1970:	dfc00117 	ldw	ra,4(sp)
    1974:	df000017 	ldw	fp,0(sp)
    1978:	dec00204 	addi	sp,sp,8
    197c:	f800283a 	ret

00001980 <sobel_complete>:


void sobel_complete(unsigned char *source){
    1980:	defff904 	addi	sp,sp,-28
    1984:	df000615 	stw	fp,24(sp)
    1988:	df000604 	addi	fp,sp,24
    198c:	e13fff15 	stw	r4,-4(fp)




	   int x,y;
	   short result = 0;
    1990:	e03ffc0d 	sth	zero,-16(fp)
	   const char * filterx = gx_array;
    1994:	00800074 	movhi	r2,1
    1998:	108966c4 	addi	r2,r2,9627
    199c:	e0bffd15 	stw	r2,-12(fp)
	   const char * filtery = gy_array;
    19a0:	00800074 	movhi	r2,1
    19a4:	10896904 	addi	r2,r2,9636
    19a8:	e0bffe15 	stw	r2,-8(fp)

	   for (y = 1 ; y < (sobel_height-1) ; y++) {
    19ac:	00800044 	movi	r2,1
    19b0:	e0bffb15 	stw	r2,-20(fp)
    19b4:	00013106 	br	1e7c <sobel_complete+0x4fc>
	      for (x = 1 ; x < (sobel_width-1) ; x++) {
    19b8:	00800044 	movi	r2,1
    19bc:	e0bffa15 	stw	r2,-24(fp)
    19c0:	00012706 	br	1e60 <sobel_complete+0x4e0>
	    		// sobel x inline
	    	  result = 0;
    19c4:	e03ffc0d 	sth	zero,-16(fp)

	    	   result += filterx[0] * source[(y-1)*sobel_width+(x-1)];
    19c8:	e0bffd17 	ldw	r2,-12(fp)
    19cc:	10800003 	ldbu	r2,0(r2)
    19d0:	10c03fcc 	andi	r3,r2,255
    19d4:	18c0201c 	xori	r3,r3,128
    19d8:	18ffe004 	addi	r3,r3,-128
    19dc:	e0bffb17 	ldw	r2,-20(fp)
    19e0:	113fffc4 	addi	r4,r2,-1
    19e4:	d0a6cf17 	ldw	r2,-25796(gp)
    19e8:	2089383a 	mul	r4,r4,r2
    19ec:	e0bffa17 	ldw	r2,-24(fp)
    19f0:	10bfffc4 	addi	r2,r2,-1
    19f4:	2085883a 	add	r2,r4,r2
    19f8:	1009883a 	mov	r4,r2
    19fc:	e0bfff17 	ldw	r2,-4(fp)
    1a00:	1105883a 	add	r2,r2,r4
    1a04:	10800003 	ldbu	r2,0(r2)
    1a08:	10803fcc 	andi	r2,r2,255
    1a0c:	1885383a 	mul	r2,r3,r2
    1a10:	1007883a 	mov	r3,r2
    1a14:	e0bffc0b 	ldhu	r2,-16(fp)
    1a18:	1885883a 	add	r2,r3,r2
    1a1c:	e0bffc0d 	sth	r2,-16(fp)
	    	   //result += filterx[1] * source[(y-1)*sobel_width+(x+0)];
	    	   result += filterx[2] * source[(y-1)*sobel_width+(x+1)];
    1a20:	e0bffd17 	ldw	r2,-12(fp)
    1a24:	10800084 	addi	r2,r2,2
    1a28:	10800003 	ldbu	r2,0(r2)
    1a2c:	10c03fcc 	andi	r3,r2,255
    1a30:	18c0201c 	xori	r3,r3,128
    1a34:	18ffe004 	addi	r3,r3,-128
    1a38:	e0bffb17 	ldw	r2,-20(fp)
    1a3c:	113fffc4 	addi	r4,r2,-1
    1a40:	d0a6cf17 	ldw	r2,-25796(gp)
    1a44:	2089383a 	mul	r4,r4,r2
    1a48:	e0bffa17 	ldw	r2,-24(fp)
    1a4c:	10800044 	addi	r2,r2,1
    1a50:	2085883a 	add	r2,r4,r2
    1a54:	1009883a 	mov	r4,r2
    1a58:	e0bfff17 	ldw	r2,-4(fp)
    1a5c:	1105883a 	add	r2,r2,r4
    1a60:	10800003 	ldbu	r2,0(r2)
    1a64:	10803fcc 	andi	r2,r2,255
    1a68:	1885383a 	mul	r2,r3,r2
    1a6c:	1007883a 	mov	r3,r2
    1a70:	e0bffc0b 	ldhu	r2,-16(fp)
    1a74:	1885883a 	add	r2,r3,r2
    1a78:	e0bffc0d 	sth	r2,-16(fp)

	    	   result += filterx[3] * source[(y)*sobel_width+(x-1)];
    1a7c:	e0bffd17 	ldw	r2,-12(fp)
    1a80:	108000c4 	addi	r2,r2,3
    1a84:	10800003 	ldbu	r2,0(r2)
    1a88:	10c03fcc 	andi	r3,r2,255
    1a8c:	18c0201c 	xori	r3,r3,128
    1a90:	18ffe004 	addi	r3,r3,-128
    1a94:	d126cf17 	ldw	r4,-25796(gp)
    1a98:	e0bffb17 	ldw	r2,-20(fp)
    1a9c:	2089383a 	mul	r4,r4,r2
    1aa0:	e0bffa17 	ldw	r2,-24(fp)
    1aa4:	10bfffc4 	addi	r2,r2,-1
    1aa8:	2085883a 	add	r2,r4,r2
    1aac:	1009883a 	mov	r4,r2
    1ab0:	e0bfff17 	ldw	r2,-4(fp)
    1ab4:	1105883a 	add	r2,r2,r4
    1ab8:	10800003 	ldbu	r2,0(r2)
    1abc:	10803fcc 	andi	r2,r2,255
    1ac0:	1885383a 	mul	r2,r3,r2
    1ac4:	1007883a 	mov	r3,r2
    1ac8:	e0bffc0b 	ldhu	r2,-16(fp)
    1acc:	1885883a 	add	r2,r3,r2
    1ad0:	e0bffc0d 	sth	r2,-16(fp)
	    	   //result += filterx[4] * source[(y)*sobel_width+(x+0)];
	    	   result += filterx[5] * source[(y)*sobel_width+(x+1)];
    1ad4:	e0bffd17 	ldw	r2,-12(fp)
    1ad8:	10800144 	addi	r2,r2,5
    1adc:	10800003 	ldbu	r2,0(r2)
    1ae0:	10c03fcc 	andi	r3,r2,255
    1ae4:	18c0201c 	xori	r3,r3,128
    1ae8:	18ffe004 	addi	r3,r3,-128
    1aec:	d126cf17 	ldw	r4,-25796(gp)
    1af0:	e0bffb17 	ldw	r2,-20(fp)
    1af4:	2089383a 	mul	r4,r4,r2
    1af8:	e0bffa17 	ldw	r2,-24(fp)
    1afc:	10800044 	addi	r2,r2,1
    1b00:	2085883a 	add	r2,r4,r2
    1b04:	1009883a 	mov	r4,r2
    1b08:	e0bfff17 	ldw	r2,-4(fp)
    1b0c:	1105883a 	add	r2,r2,r4
    1b10:	10800003 	ldbu	r2,0(r2)
    1b14:	10803fcc 	andi	r2,r2,255
    1b18:	1885383a 	mul	r2,r3,r2
    1b1c:	1007883a 	mov	r3,r2
    1b20:	e0bffc0b 	ldhu	r2,-16(fp)
    1b24:	1885883a 	add	r2,r3,r2
    1b28:	e0bffc0d 	sth	r2,-16(fp)

	    	   result += filterx[6] * source[(y+1)*sobel_width+(x-1)];
    1b2c:	e0bffd17 	ldw	r2,-12(fp)
    1b30:	10800184 	addi	r2,r2,6
    1b34:	10800003 	ldbu	r2,0(r2)
    1b38:	10c03fcc 	andi	r3,r2,255
    1b3c:	18c0201c 	xori	r3,r3,128
    1b40:	18ffe004 	addi	r3,r3,-128
    1b44:	e0bffb17 	ldw	r2,-20(fp)
    1b48:	11000044 	addi	r4,r2,1
    1b4c:	d0a6cf17 	ldw	r2,-25796(gp)
    1b50:	2089383a 	mul	r4,r4,r2
    1b54:	e0bffa17 	ldw	r2,-24(fp)
    1b58:	10bfffc4 	addi	r2,r2,-1
    1b5c:	2085883a 	add	r2,r4,r2
    1b60:	1009883a 	mov	r4,r2
    1b64:	e0bfff17 	ldw	r2,-4(fp)
    1b68:	1105883a 	add	r2,r2,r4
    1b6c:	10800003 	ldbu	r2,0(r2)
    1b70:	10803fcc 	andi	r2,r2,255
    1b74:	1885383a 	mul	r2,r3,r2
    1b78:	1007883a 	mov	r3,r2
    1b7c:	e0bffc0b 	ldhu	r2,-16(fp)
    1b80:	1885883a 	add	r2,r3,r2
    1b84:	e0bffc0d 	sth	r2,-16(fp)
	    	   //result += filterx[7] * source[(y+1)*sobel_width+(x+0)];
	    	   result += filterx[8] * source[(y+1)*sobel_width+(x+1)];
    1b88:	e0bffd17 	ldw	r2,-12(fp)
    1b8c:	10800204 	addi	r2,r2,8
    1b90:	10800003 	ldbu	r2,0(r2)
    1b94:	10c03fcc 	andi	r3,r2,255
    1b98:	18c0201c 	xori	r3,r3,128
    1b9c:	18ffe004 	addi	r3,r3,-128
    1ba0:	e0bffb17 	ldw	r2,-20(fp)
    1ba4:	11000044 	addi	r4,r2,1
    1ba8:	d0a6cf17 	ldw	r2,-25796(gp)
    1bac:	2089383a 	mul	r4,r4,r2
    1bb0:	e0bffa17 	ldw	r2,-24(fp)
    1bb4:	10800044 	addi	r2,r2,1
    1bb8:	2085883a 	add	r2,r4,r2
    1bbc:	1009883a 	mov	r4,r2
    1bc0:	e0bfff17 	ldw	r2,-4(fp)
    1bc4:	1105883a 	add	r2,r2,r4
    1bc8:	10800003 	ldbu	r2,0(r2)
    1bcc:	10803fcc 	andi	r2,r2,255
    1bd0:	1885383a 	mul	r2,r3,r2
    1bd4:	1007883a 	mov	r3,r2
    1bd8:	e0bffc0b 	ldhu	r2,-16(fp)
    1bdc:	1885883a 	add	r2,r3,r2
    1be0:	e0bffc0d 	sth	r2,-16(fp)

	    	   sobel_x_result[y*sobel_width+x] = result;
    1be4:	d0e6d217 	ldw	r3,-25784(gp)
    1be8:	d126cf17 	ldw	r4,-25796(gp)
    1bec:	e0bffb17 	ldw	r2,-20(fp)
    1bf0:	2089383a 	mul	r4,r4,r2
    1bf4:	e0bffa17 	ldw	r2,-24(fp)
    1bf8:	2085883a 	add	r2,r4,r2
    1bfc:	1085883a 	add	r2,r2,r2
    1c00:	1885883a 	add	r2,r3,r2
    1c04:	e0fffc0b 	ldhu	r3,-16(fp)
    1c08:	10c0000d 	sth	r3,0(r2)

	    	   // sobel y inline
	    	   result = 0;
    1c0c:	e03ffc0d 	sth	zero,-16(fp)

	    	   result += filtery[0] * source[(y-1)*sobel_width+(x-1)];
    1c10:	e0bffe17 	ldw	r2,-8(fp)
    1c14:	10800003 	ldbu	r2,0(r2)
    1c18:	10c03fcc 	andi	r3,r2,255
    1c1c:	18c0201c 	xori	r3,r3,128
    1c20:	18ffe004 	addi	r3,r3,-128
    1c24:	e0bffb17 	ldw	r2,-20(fp)
    1c28:	113fffc4 	addi	r4,r2,-1
    1c2c:	d0a6cf17 	ldw	r2,-25796(gp)
    1c30:	2089383a 	mul	r4,r4,r2
    1c34:	e0bffa17 	ldw	r2,-24(fp)
    1c38:	10bfffc4 	addi	r2,r2,-1
    1c3c:	2085883a 	add	r2,r4,r2
    1c40:	1009883a 	mov	r4,r2
    1c44:	e0bfff17 	ldw	r2,-4(fp)
    1c48:	1105883a 	add	r2,r2,r4
    1c4c:	10800003 	ldbu	r2,0(r2)
    1c50:	10803fcc 	andi	r2,r2,255
    1c54:	1885383a 	mul	r2,r3,r2
    1c58:	1007883a 	mov	r3,r2
    1c5c:	e0bffc0b 	ldhu	r2,-16(fp)
    1c60:	1885883a 	add	r2,r3,r2
    1c64:	e0bffc0d 	sth	r2,-16(fp)
	    	   //result += filtery[1] * source[(y-1)*sobel_width+(x+0)];
	    	   result += filtery[2] * source[(y-1)*sobel_width+(x+1)];
    1c68:	e0bffe17 	ldw	r2,-8(fp)
    1c6c:	10800084 	addi	r2,r2,2
    1c70:	10800003 	ldbu	r2,0(r2)
    1c74:	10c03fcc 	andi	r3,r2,255
    1c78:	18c0201c 	xori	r3,r3,128
    1c7c:	18ffe004 	addi	r3,r3,-128
    1c80:	e0bffb17 	ldw	r2,-20(fp)
    1c84:	113fffc4 	addi	r4,r2,-1
    1c88:	d0a6cf17 	ldw	r2,-25796(gp)
    1c8c:	2089383a 	mul	r4,r4,r2
    1c90:	e0bffa17 	ldw	r2,-24(fp)
    1c94:	10800044 	addi	r2,r2,1
    1c98:	2085883a 	add	r2,r4,r2
    1c9c:	1009883a 	mov	r4,r2
    1ca0:	e0bfff17 	ldw	r2,-4(fp)
    1ca4:	1105883a 	add	r2,r2,r4
    1ca8:	10800003 	ldbu	r2,0(r2)
    1cac:	10803fcc 	andi	r2,r2,255
    1cb0:	1885383a 	mul	r2,r3,r2
    1cb4:	1007883a 	mov	r3,r2
    1cb8:	e0bffc0b 	ldhu	r2,-16(fp)
    1cbc:	1885883a 	add	r2,r3,r2
    1cc0:	e0bffc0d 	sth	r2,-16(fp)

	    	   result += filtery[3] * source[(y)*sobel_width+(x-1)];
    1cc4:	e0bffe17 	ldw	r2,-8(fp)
    1cc8:	108000c4 	addi	r2,r2,3
    1ccc:	10800003 	ldbu	r2,0(r2)
    1cd0:	10c03fcc 	andi	r3,r2,255
    1cd4:	18c0201c 	xori	r3,r3,128
    1cd8:	18ffe004 	addi	r3,r3,-128
    1cdc:	d126cf17 	ldw	r4,-25796(gp)
    1ce0:	e0bffb17 	ldw	r2,-20(fp)
    1ce4:	2089383a 	mul	r4,r4,r2
    1ce8:	e0bffa17 	ldw	r2,-24(fp)
    1cec:	10bfffc4 	addi	r2,r2,-1
    1cf0:	2085883a 	add	r2,r4,r2
    1cf4:	1009883a 	mov	r4,r2
    1cf8:	e0bfff17 	ldw	r2,-4(fp)
    1cfc:	1105883a 	add	r2,r2,r4
    1d00:	10800003 	ldbu	r2,0(r2)
    1d04:	10803fcc 	andi	r2,r2,255
    1d08:	1885383a 	mul	r2,r3,r2
    1d0c:	1007883a 	mov	r3,r2
    1d10:	e0bffc0b 	ldhu	r2,-16(fp)
    1d14:	1885883a 	add	r2,r3,r2
    1d18:	e0bffc0d 	sth	r2,-16(fp)
	    	   //result += filtery[4] * source[(y)*sobel_width+(x+0)];
	    	   result += filtery[5] * source[(y)*sobel_width+(x+1)];
    1d1c:	e0bffe17 	ldw	r2,-8(fp)
    1d20:	10800144 	addi	r2,r2,5
    1d24:	10800003 	ldbu	r2,0(r2)
    1d28:	10c03fcc 	andi	r3,r2,255
    1d2c:	18c0201c 	xori	r3,r3,128
    1d30:	18ffe004 	addi	r3,r3,-128
    1d34:	d126cf17 	ldw	r4,-25796(gp)
    1d38:	e0bffb17 	ldw	r2,-20(fp)
    1d3c:	2089383a 	mul	r4,r4,r2
    1d40:	e0bffa17 	ldw	r2,-24(fp)
    1d44:	10800044 	addi	r2,r2,1
    1d48:	2085883a 	add	r2,r4,r2
    1d4c:	1009883a 	mov	r4,r2
    1d50:	e0bfff17 	ldw	r2,-4(fp)
    1d54:	1105883a 	add	r2,r2,r4
    1d58:	10800003 	ldbu	r2,0(r2)
    1d5c:	10803fcc 	andi	r2,r2,255
    1d60:	1885383a 	mul	r2,r3,r2
    1d64:	1007883a 	mov	r3,r2
    1d68:	e0bffc0b 	ldhu	r2,-16(fp)
    1d6c:	1885883a 	add	r2,r3,r2
    1d70:	e0bffc0d 	sth	r2,-16(fp)

	    	   result += filtery[6] * source[(y+1)*sobel_width+(x-1)];
    1d74:	e0bffe17 	ldw	r2,-8(fp)
    1d78:	10800184 	addi	r2,r2,6
    1d7c:	10800003 	ldbu	r2,0(r2)
    1d80:	10c03fcc 	andi	r3,r2,255
    1d84:	18c0201c 	xori	r3,r3,128
    1d88:	18ffe004 	addi	r3,r3,-128
    1d8c:	e0bffb17 	ldw	r2,-20(fp)
    1d90:	11000044 	addi	r4,r2,1
    1d94:	d0a6cf17 	ldw	r2,-25796(gp)
    1d98:	2089383a 	mul	r4,r4,r2
    1d9c:	e0bffa17 	ldw	r2,-24(fp)
    1da0:	10bfffc4 	addi	r2,r2,-1
    1da4:	2085883a 	add	r2,r4,r2
    1da8:	1009883a 	mov	r4,r2
    1dac:	e0bfff17 	ldw	r2,-4(fp)
    1db0:	1105883a 	add	r2,r2,r4
    1db4:	10800003 	ldbu	r2,0(r2)
    1db8:	10803fcc 	andi	r2,r2,255
    1dbc:	1885383a 	mul	r2,r3,r2
    1dc0:	1007883a 	mov	r3,r2
    1dc4:	e0bffc0b 	ldhu	r2,-16(fp)
    1dc8:	1885883a 	add	r2,r3,r2
    1dcc:	e0bffc0d 	sth	r2,-16(fp)
	    	   //result += filtery[7] * source[(y+1)*sobel_width+(x+0)];
	    	   result += filtery[8] * source[(y+1)*sobel_width+(x+1)];
    1dd0:	e0bffe17 	ldw	r2,-8(fp)
    1dd4:	10800204 	addi	r2,r2,8
    1dd8:	10800003 	ldbu	r2,0(r2)
    1ddc:	10c03fcc 	andi	r3,r2,255
    1de0:	18c0201c 	xori	r3,r3,128
    1de4:	18ffe004 	addi	r3,r3,-128
    1de8:	e0bffb17 	ldw	r2,-20(fp)
    1dec:	11000044 	addi	r4,r2,1
    1df0:	d0a6cf17 	ldw	r2,-25796(gp)
    1df4:	2089383a 	mul	r4,r4,r2
    1df8:	e0bffa17 	ldw	r2,-24(fp)
    1dfc:	10800044 	addi	r2,r2,1
    1e00:	2085883a 	add	r2,r4,r2
    1e04:	1009883a 	mov	r4,r2
    1e08:	e0bfff17 	ldw	r2,-4(fp)
    1e0c:	1105883a 	add	r2,r2,r4
    1e10:	10800003 	ldbu	r2,0(r2)
    1e14:	10803fcc 	andi	r2,r2,255
    1e18:	1885383a 	mul	r2,r3,r2
    1e1c:	1007883a 	mov	r3,r2
    1e20:	e0bffc0b 	ldhu	r2,-16(fp)
    1e24:	1885883a 	add	r2,r3,r2
    1e28:	e0bffc0d 	sth	r2,-16(fp)

	    	   sobel_y_result[y*sobel_width+x] = result;
    1e2c:	d0e6d317 	ldw	r3,-25780(gp)
    1e30:	d126cf17 	ldw	r4,-25796(gp)
    1e34:	e0bffb17 	ldw	r2,-20(fp)
    1e38:	2089383a 	mul	r4,r4,r2
    1e3c:	e0bffa17 	ldw	r2,-24(fp)
    1e40:	2085883a 	add	r2,r4,r2
    1e44:	1085883a 	add	r2,r2,r2
    1e48:	1885883a 	add	r2,r3,r2
    1e4c:	e0fffc0b 	ldhu	r3,-16(fp)
    1e50:	10c0000d 	sth	r3,0(r2)
	   short result = 0;
	   const char * filterx = gx_array;
	   const char * filtery = gy_array;

	   for (y = 1 ; y < (sobel_height-1) ; y++) {
	      for (x = 1 ; x < (sobel_width-1) ; x++) {
    1e54:	e0bffa17 	ldw	r2,-24(fp)
    1e58:	10800044 	addi	r2,r2,1
    1e5c:	e0bffa15 	stw	r2,-24(fp)
    1e60:	d0a6cf17 	ldw	r2,-25796(gp)
    1e64:	10bfffc4 	addi	r2,r2,-1
    1e68:	e0fffa17 	ldw	r3,-24(fp)
    1e6c:	18bed516 	blt	r3,r2,19c4 <sobel_complete+0x44>
	   int x,y;
	   short result = 0;
	   const char * filterx = gx_array;
	   const char * filtery = gy_array;

	   for (y = 1 ; y < (sobel_height-1) ; y++) {
    1e70:	e0bffb17 	ldw	r2,-20(fp)
    1e74:	10800044 	addi	r2,r2,1
    1e78:	e0bffb15 	stw	r2,-20(fp)
    1e7c:	d0a6d117 	ldw	r2,-25788(gp)
    1e80:	10bfffc4 	addi	r2,r2,-1
    1e84:	e0fffb17 	ldw	r3,-20(fp)
    1e88:	18becb16 	blt	r3,r2,19b8 <sobel_complete+0x38>
	    	   sobel_y_result[y*sobel_width+x] = result;


	      }
	   }
	   return;
    1e8c:	0001883a 	nop
}
    1e90:	e037883a 	mov	sp,fp
    1e94:	df000017 	ldw	fp,0(sp)
    1e98:	dec00104 	addi	sp,sp,4
    1e9c:	f800283a 	ret

00001ea0 <sobel_mac>:

short sobel_mac( unsigned char *pixels,
                 int x,
                 int y,
                 const char *filter,
                 unsigned int width ) {
    1ea0:	defff904 	addi	sp,sp,-28
    1ea4:	df000615 	stw	fp,24(sp)
    1ea8:	df000604 	addi	fp,sp,24
    1eac:	e13ffc15 	stw	r4,-16(fp)
    1eb0:	e17ffd15 	stw	r5,-12(fp)
    1eb4:	e1bffe15 	stw	r6,-8(fp)
    1eb8:	e1ffff15 	stw	r7,-4(fp)
   short dy,dx;
   short result = 0;
    1ebc:	e03ffb0d 	sth	zero,-20(fp)
   for (dy = -1 ; dy < 2 ; dy++) {
    1ec0:	00bfffc4 	movi	r2,-1
    1ec4:	e0bffa0d 	sth	r2,-24(fp)
    1ec8:	00002e06 	br	1f84 <sobel_mac+0xe4>
      for (dx = -1 ; dx < 2 ; dx++) {
    1ecc:	00bfffc4 	movi	r2,-1
    1ed0:	e0bffa8d 	sth	r2,-22(fp)
    1ed4:	00002506 	br	1f6c <sobel_mac+0xcc>
         result += filter[(dy+1)*3+(dx+1)]*
    1ed8:	e0bffa0f 	ldh	r2,-24(fp)
    1edc:	10c00044 	addi	r3,r2,1
    1ee0:	1805883a 	mov	r2,r3
    1ee4:	1085883a 	add	r2,r2,r2
    1ee8:	10c7883a 	add	r3,r2,r3
    1eec:	e0bffa8f 	ldh	r2,-22(fp)
    1ef0:	10800044 	addi	r2,r2,1
    1ef4:	1885883a 	add	r2,r3,r2
    1ef8:	1007883a 	mov	r3,r2
    1efc:	e0bfff17 	ldw	r2,-4(fp)
    1f00:	10c5883a 	add	r2,r2,r3
    1f04:	10800003 	ldbu	r2,0(r2)
    1f08:	10c03fcc 	andi	r3,r2,255
    1f0c:	18c0201c 	xori	r3,r3,128
    1f10:	18ffe004 	addi	r3,r3,-128
                   pixels[(y+dy)*width+(x+dx)];
    1f14:	e13ffa0f 	ldh	r4,-24(fp)
    1f18:	e0bffe17 	ldw	r2,-8(fp)
    1f1c:	2085883a 	add	r2,r4,r2
    1f20:	1009883a 	mov	r4,r2
    1f24:	e0800117 	ldw	r2,4(fp)
    1f28:	2085383a 	mul	r2,r4,r2
    1f2c:	e17ffa8f 	ldh	r5,-22(fp)
    1f30:	e13ffd17 	ldw	r4,-12(fp)
    1f34:	2909883a 	add	r4,r5,r4
    1f38:	1105883a 	add	r2,r2,r4
    1f3c:	e13ffc17 	ldw	r4,-16(fp)
    1f40:	2085883a 	add	r2,r4,r2
    1f44:	10800003 	ldbu	r2,0(r2)
                 unsigned int width ) {
   short dy,dx;
   short result = 0;
   for (dy = -1 ; dy < 2 ; dy++) {
      for (dx = -1 ; dx < 2 ; dx++) {
         result += filter[(dy+1)*3+(dx+1)]*
    1f48:	10803fcc 	andi	r2,r2,255
    1f4c:	1885383a 	mul	r2,r3,r2
    1f50:	1007883a 	mov	r3,r2
    1f54:	e0bffb0b 	ldhu	r2,-20(fp)
    1f58:	1885883a 	add	r2,r3,r2
    1f5c:	e0bffb0d 	sth	r2,-20(fp)
                 const char *filter,
                 unsigned int width ) {
   short dy,dx;
   short result = 0;
   for (dy = -1 ; dy < 2 ; dy++) {
      for (dx = -1 ; dx < 2 ; dx++) {
    1f60:	e0bffa8b 	ldhu	r2,-22(fp)
    1f64:	10800044 	addi	r2,r2,1
    1f68:	e0bffa8d 	sth	r2,-22(fp)
    1f6c:	e0bffa8f 	ldh	r2,-22(fp)
    1f70:	10800090 	cmplti	r2,r2,2
    1f74:	103fd81e 	bne	r2,zero,1ed8 <sobel_mac+0x38>
                 int y,
                 const char *filter,
                 unsigned int width ) {
   short dy,dx;
   short result = 0;
   for (dy = -1 ; dy < 2 ; dy++) {
    1f78:	e0bffa0b 	ldhu	r2,-24(fp)
    1f7c:	10800044 	addi	r2,r2,1
    1f80:	e0bffa0d 	sth	r2,-24(fp)
    1f84:	e0bffa0f 	ldh	r2,-24(fp)
    1f88:	10800090 	cmplti	r2,r2,2
    1f8c:	103fcf1e 	bne	r2,zero,1ecc <sobel_mac+0x2c>
      for (dx = -1 ; dx < 2 ; dx++) {
         result += filter[(dy+1)*3+(dx+1)]*
                   pixels[(y+dy)*width+(x+dx)];
      }
   }
   return result;
    1f90:	e0bffb0b 	ldhu	r2,-20(fp)
}
    1f94:	e037883a 	mov	sp,fp
    1f98:	df000017 	ldw	fp,0(sp)
    1f9c:	dec00104 	addi	sp,sp,4
    1fa0:	f800283a 	ret

00001fa4 <sobel_mac_unrollx>:

short sobel_mac_unrollx( unsigned char *pixels,
                 int x,
                 int y,
                 const char *filter,
                 unsigned int width ) {
    1fa4:	defffa04 	addi	sp,sp,-24
    1fa8:	df000515 	stw	fp,20(sp)
    1fac:	df000504 	addi	fp,sp,20
    1fb0:	e13ffc15 	stw	r4,-16(fp)
    1fb4:	e17ffd15 	stw	r5,-12(fp)
    1fb8:	e1bffe15 	stw	r6,-8(fp)
    1fbc:	e1ffff15 	stw	r7,-4(fp)
   short dy,dx;
   short result = 0;
    1fc0:	e03ffb8d 	sth	zero,-18(fp)
   for (dy = -1 ; dy < 2 ; dy++) {
    1fc4:	00bfffc4 	movi	r2,-1
    1fc8:	e0bffb0d 	sth	r2,-20(fp)
    1fcc:	00005c06 	br	2140 <sobel_mac_unrollx+0x19c>
       result += filter[(dy+1)*3+(0)]*pixels[(y+dy)*width+(x-1)];
    1fd0:	e0bffb0f 	ldh	r2,-20(fp)
    1fd4:	10c00044 	addi	r3,r2,1
    1fd8:	1805883a 	mov	r2,r3
    1fdc:	1085883a 	add	r2,r2,r2
    1fe0:	10c5883a 	add	r2,r2,r3
    1fe4:	1007883a 	mov	r3,r2
    1fe8:	e0bfff17 	ldw	r2,-4(fp)
    1fec:	10c5883a 	add	r2,r2,r3
    1ff0:	10800003 	ldbu	r2,0(r2)
    1ff4:	10c03fcc 	andi	r3,r2,255
    1ff8:	18c0201c 	xori	r3,r3,128
    1ffc:	18ffe004 	addi	r3,r3,-128
    2000:	e13ffb0f 	ldh	r4,-20(fp)
    2004:	e0bffe17 	ldw	r2,-8(fp)
    2008:	2085883a 	add	r2,r4,r2
    200c:	1009883a 	mov	r4,r2
    2010:	e0800117 	ldw	r2,4(fp)
    2014:	2089383a 	mul	r4,r4,r2
    2018:	e0bffd17 	ldw	r2,-12(fp)
    201c:	2085883a 	add	r2,r4,r2
    2020:	10bfffc4 	addi	r2,r2,-1
    2024:	e13ffc17 	ldw	r4,-16(fp)
    2028:	2085883a 	add	r2,r4,r2
    202c:	10800003 	ldbu	r2,0(r2)
    2030:	10803fcc 	andi	r2,r2,255
    2034:	1885383a 	mul	r2,r3,r2
    2038:	1007883a 	mov	r3,r2
    203c:	e0bffb8b 	ldhu	r2,-18(fp)
    2040:	1885883a 	add	r2,r3,r2
    2044:	e0bffb8d 	sth	r2,-18(fp)
       result += filter[(dy+1)*3+(1)]*pixels[(y+dy)*width+(x)];
    2048:	e0bffb0f 	ldh	r2,-20(fp)
    204c:	10c00044 	addi	r3,r2,1
    2050:	1805883a 	mov	r2,r3
    2054:	1085883a 	add	r2,r2,r2
    2058:	10c5883a 	add	r2,r2,r3
    205c:	10800044 	addi	r2,r2,1
    2060:	e0ffff17 	ldw	r3,-4(fp)
    2064:	1885883a 	add	r2,r3,r2
    2068:	10800003 	ldbu	r2,0(r2)
    206c:	10c03fcc 	andi	r3,r2,255
    2070:	18c0201c 	xori	r3,r3,128
    2074:	18ffe004 	addi	r3,r3,-128
    2078:	e13ffb0f 	ldh	r4,-20(fp)
    207c:	e0bffe17 	ldw	r2,-8(fp)
    2080:	2085883a 	add	r2,r4,r2
    2084:	1009883a 	mov	r4,r2
    2088:	e0800117 	ldw	r2,4(fp)
    208c:	2089383a 	mul	r4,r4,r2
    2090:	e0bffd17 	ldw	r2,-12(fp)
    2094:	2085883a 	add	r2,r4,r2
    2098:	e13ffc17 	ldw	r4,-16(fp)
    209c:	2085883a 	add	r2,r4,r2
    20a0:	10800003 	ldbu	r2,0(r2)
    20a4:	10803fcc 	andi	r2,r2,255
    20a8:	1885383a 	mul	r2,r3,r2
    20ac:	1007883a 	mov	r3,r2
    20b0:	e0bffb8b 	ldhu	r2,-18(fp)
    20b4:	1885883a 	add	r2,r3,r2
    20b8:	e0bffb8d 	sth	r2,-18(fp)
       result += filter[(dy+1)*3+(2)]*pixels[(y+dy)*width+(x+1)];
    20bc:	e0bffb0f 	ldh	r2,-20(fp)
    20c0:	10c00044 	addi	r3,r2,1
    20c4:	1805883a 	mov	r2,r3
    20c8:	1085883a 	add	r2,r2,r2
    20cc:	10c5883a 	add	r2,r2,r3
    20d0:	10800084 	addi	r2,r2,2
    20d4:	e0ffff17 	ldw	r3,-4(fp)
    20d8:	1885883a 	add	r2,r3,r2
    20dc:	10800003 	ldbu	r2,0(r2)
    20e0:	10c03fcc 	andi	r3,r2,255
    20e4:	18c0201c 	xori	r3,r3,128
    20e8:	18ffe004 	addi	r3,r3,-128
    20ec:	e13ffb0f 	ldh	r4,-20(fp)
    20f0:	e0bffe17 	ldw	r2,-8(fp)
    20f4:	2085883a 	add	r2,r4,r2
    20f8:	1009883a 	mov	r4,r2
    20fc:	e0800117 	ldw	r2,4(fp)
    2100:	2089383a 	mul	r4,r4,r2
    2104:	e0bffd17 	ldw	r2,-12(fp)
    2108:	2085883a 	add	r2,r4,r2
    210c:	10800044 	addi	r2,r2,1
    2110:	e13ffc17 	ldw	r4,-16(fp)
    2114:	2085883a 	add	r2,r4,r2
    2118:	10800003 	ldbu	r2,0(r2)
    211c:	10803fcc 	andi	r2,r2,255
    2120:	1885383a 	mul	r2,r3,r2
    2124:	1007883a 	mov	r3,r2
    2128:	e0bffb8b 	ldhu	r2,-18(fp)
    212c:	1885883a 	add	r2,r3,r2
    2130:	e0bffb8d 	sth	r2,-18(fp)
                 int y,
                 const char *filter,
                 unsigned int width ) {
   short dy,dx;
   short result = 0;
   for (dy = -1 ; dy < 2 ; dy++) {
    2134:	e0bffb0b 	ldhu	r2,-20(fp)
    2138:	10800044 	addi	r2,r2,1
    213c:	e0bffb0d 	sth	r2,-20(fp)
    2140:	e0bffb0f 	ldh	r2,-20(fp)
    2144:	10800090 	cmplti	r2,r2,2
    2148:	103fa11e 	bne	r2,zero,1fd0 <sobel_mac_unrollx+0x2c>
       result += filter[(dy+1)*3+(0)]*pixels[(y+dy)*width+(x-1)];
       result += filter[(dy+1)*3+(1)]*pixels[(y+dy)*width+(x)];
       result += filter[(dy+1)*3+(2)]*pixels[(y+dy)*width+(x+1)];
   }
   return result;
    214c:	e0bffb8b 	ldhu	r2,-18(fp)
}
    2150:	e037883a 	mov	sp,fp
    2154:	df000017 	ldw	fp,0(sp)
    2158:	dec00104 	addi	sp,sp,4
    215c:	f800283a 	ret

00002160 <sobel_mac_unroll>:

short sobel_mac_unroll( unsigned char *pixels,
                 int x,
                 int y,
                 const char *filter,
                 unsigned int width ) {
    2160:	defffa04 	addi	sp,sp,-24
    2164:	df000515 	stw	fp,20(sp)
    2168:	df000504 	addi	fp,sp,20
    216c:	e13ffc15 	stw	r4,-16(fp)
    2170:	e17ffd15 	stw	r5,-12(fp)
    2174:	e1bffe15 	stw	r6,-8(fp)
    2178:	e1ffff15 	stw	r7,-4(fp)
   short result = 0;
    217c:	e03ffb0d 	sth	zero,-20(fp)
   // dy = -1, dx from -1 to 1
   //result += filter[(-1+1)*3+(-1+1)] * pixels[(y-1)*width+(x-1)];
   //result += filter[(-1+1)*3+(0+1)] * pixels[(y-1)*width+(x+0)];
   //result += filter[(-1+1)*3+(1+1)] * pixels[(y-1)*width+(x+1)];

   result += filter[0] * pixels[(y-1)*width+(x-1)];
    2180:	e0bfff17 	ldw	r2,-4(fp)
    2184:	10800003 	ldbu	r2,0(r2)
    2188:	10c03fcc 	andi	r3,r2,255
    218c:	18c0201c 	xori	r3,r3,128
    2190:	18ffe004 	addi	r3,r3,-128
    2194:	e0bffe17 	ldw	r2,-8(fp)
    2198:	10bfffc4 	addi	r2,r2,-1
    219c:	1009883a 	mov	r4,r2
    21a0:	e0800117 	ldw	r2,4(fp)
    21a4:	2089383a 	mul	r4,r4,r2
    21a8:	e0bffd17 	ldw	r2,-12(fp)
    21ac:	2085883a 	add	r2,r4,r2
    21b0:	10bfffc4 	addi	r2,r2,-1
    21b4:	e13ffc17 	ldw	r4,-16(fp)
    21b8:	2085883a 	add	r2,r4,r2
    21bc:	10800003 	ldbu	r2,0(r2)
    21c0:	10803fcc 	andi	r2,r2,255
    21c4:	1885383a 	mul	r2,r3,r2
    21c8:	1007883a 	mov	r3,r2
    21cc:	e0bffb0b 	ldhu	r2,-20(fp)
    21d0:	1885883a 	add	r2,r3,r2
    21d4:	e0bffb0d 	sth	r2,-20(fp)
   result += filter[1] * pixels[(y-1)*width+(x+0)];
    21d8:	e0bfff17 	ldw	r2,-4(fp)
    21dc:	10800044 	addi	r2,r2,1
    21e0:	10800003 	ldbu	r2,0(r2)
    21e4:	10c03fcc 	andi	r3,r2,255
    21e8:	18c0201c 	xori	r3,r3,128
    21ec:	18ffe004 	addi	r3,r3,-128
    21f0:	e0bffe17 	ldw	r2,-8(fp)
    21f4:	10bfffc4 	addi	r2,r2,-1
    21f8:	1009883a 	mov	r4,r2
    21fc:	e0800117 	ldw	r2,4(fp)
    2200:	2089383a 	mul	r4,r4,r2
    2204:	e0bffd17 	ldw	r2,-12(fp)
    2208:	2085883a 	add	r2,r4,r2
    220c:	e13ffc17 	ldw	r4,-16(fp)
    2210:	2085883a 	add	r2,r4,r2
    2214:	10800003 	ldbu	r2,0(r2)
    2218:	10803fcc 	andi	r2,r2,255
    221c:	1885383a 	mul	r2,r3,r2
    2220:	1007883a 	mov	r3,r2
    2224:	e0bffb0b 	ldhu	r2,-20(fp)
    2228:	1885883a 	add	r2,r3,r2
    222c:	e0bffb0d 	sth	r2,-20(fp)
   result += filter[2] * pixels[(y-1)*width+(x+1)];
    2230:	e0bfff17 	ldw	r2,-4(fp)
    2234:	10800084 	addi	r2,r2,2
    2238:	10800003 	ldbu	r2,0(r2)
    223c:	10c03fcc 	andi	r3,r2,255
    2240:	18c0201c 	xori	r3,r3,128
    2244:	18ffe004 	addi	r3,r3,-128
    2248:	e0bffe17 	ldw	r2,-8(fp)
    224c:	10bfffc4 	addi	r2,r2,-1
    2250:	1009883a 	mov	r4,r2
    2254:	e0800117 	ldw	r2,4(fp)
    2258:	2089383a 	mul	r4,r4,r2
    225c:	e0bffd17 	ldw	r2,-12(fp)
    2260:	2085883a 	add	r2,r4,r2
    2264:	10800044 	addi	r2,r2,1
    2268:	e13ffc17 	ldw	r4,-16(fp)
    226c:	2085883a 	add	r2,r4,r2
    2270:	10800003 	ldbu	r2,0(r2)
    2274:	10803fcc 	andi	r2,r2,255
    2278:	1885383a 	mul	r2,r3,r2
    227c:	1007883a 	mov	r3,r2
    2280:	e0bffb0b 	ldhu	r2,-20(fp)
    2284:	1885883a 	add	r2,r3,r2
    2288:	e0bffb0d 	sth	r2,-20(fp)

   result += filter[3] * pixels[(y)*width+(x-1)];
    228c:	e0bfff17 	ldw	r2,-4(fp)
    2290:	108000c4 	addi	r2,r2,3
    2294:	10800003 	ldbu	r2,0(r2)
    2298:	10c03fcc 	andi	r3,r2,255
    229c:	18c0201c 	xori	r3,r3,128
    22a0:	18ffe004 	addi	r3,r3,-128
    22a4:	e13ffe17 	ldw	r4,-8(fp)
    22a8:	e0800117 	ldw	r2,4(fp)
    22ac:	2089383a 	mul	r4,r4,r2
    22b0:	e0bffd17 	ldw	r2,-12(fp)
    22b4:	2085883a 	add	r2,r4,r2
    22b8:	10bfffc4 	addi	r2,r2,-1
    22bc:	e13ffc17 	ldw	r4,-16(fp)
    22c0:	2085883a 	add	r2,r4,r2
    22c4:	10800003 	ldbu	r2,0(r2)
    22c8:	10803fcc 	andi	r2,r2,255
    22cc:	1885383a 	mul	r2,r3,r2
    22d0:	1007883a 	mov	r3,r2
    22d4:	e0bffb0b 	ldhu	r2,-20(fp)
    22d8:	1885883a 	add	r2,r3,r2
    22dc:	e0bffb0d 	sth	r2,-20(fp)
   result += filter[4] * pixels[(y)*width+(x+0)];
    22e0:	e0bfff17 	ldw	r2,-4(fp)
    22e4:	10800104 	addi	r2,r2,4
    22e8:	10800003 	ldbu	r2,0(r2)
    22ec:	10c03fcc 	andi	r3,r2,255
    22f0:	18c0201c 	xori	r3,r3,128
    22f4:	18ffe004 	addi	r3,r3,-128
    22f8:	e13ffe17 	ldw	r4,-8(fp)
    22fc:	e0800117 	ldw	r2,4(fp)
    2300:	2089383a 	mul	r4,r4,r2
    2304:	e0bffd17 	ldw	r2,-12(fp)
    2308:	2085883a 	add	r2,r4,r2
    230c:	e13ffc17 	ldw	r4,-16(fp)
    2310:	2085883a 	add	r2,r4,r2
    2314:	10800003 	ldbu	r2,0(r2)
    2318:	10803fcc 	andi	r2,r2,255
    231c:	1885383a 	mul	r2,r3,r2
    2320:	1007883a 	mov	r3,r2
    2324:	e0bffb0b 	ldhu	r2,-20(fp)
    2328:	1885883a 	add	r2,r3,r2
    232c:	e0bffb0d 	sth	r2,-20(fp)
   result += filter[5] * pixels[(y)*width+(x+1)];
    2330:	e0bfff17 	ldw	r2,-4(fp)
    2334:	10800144 	addi	r2,r2,5
    2338:	10800003 	ldbu	r2,0(r2)
    233c:	10c03fcc 	andi	r3,r2,255
    2340:	18c0201c 	xori	r3,r3,128
    2344:	18ffe004 	addi	r3,r3,-128
    2348:	e13ffe17 	ldw	r4,-8(fp)
    234c:	e0800117 	ldw	r2,4(fp)
    2350:	2089383a 	mul	r4,r4,r2
    2354:	e0bffd17 	ldw	r2,-12(fp)
    2358:	2085883a 	add	r2,r4,r2
    235c:	10800044 	addi	r2,r2,1
    2360:	e13ffc17 	ldw	r4,-16(fp)
    2364:	2085883a 	add	r2,r4,r2
    2368:	10800003 	ldbu	r2,0(r2)
    236c:	10803fcc 	andi	r2,r2,255
    2370:	1885383a 	mul	r2,r3,r2
    2374:	1007883a 	mov	r3,r2
    2378:	e0bffb0b 	ldhu	r2,-20(fp)
    237c:	1885883a 	add	r2,r3,r2
    2380:	e0bffb0d 	sth	r2,-20(fp)

   result += filter[6] * pixels[(y+1)*width+(x-1)];
    2384:	e0bfff17 	ldw	r2,-4(fp)
    2388:	10800184 	addi	r2,r2,6
    238c:	10800003 	ldbu	r2,0(r2)
    2390:	10c03fcc 	andi	r3,r2,255
    2394:	18c0201c 	xori	r3,r3,128
    2398:	18ffe004 	addi	r3,r3,-128
    239c:	e0bffe17 	ldw	r2,-8(fp)
    23a0:	10800044 	addi	r2,r2,1
    23a4:	1009883a 	mov	r4,r2
    23a8:	e0800117 	ldw	r2,4(fp)
    23ac:	2089383a 	mul	r4,r4,r2
    23b0:	e0bffd17 	ldw	r2,-12(fp)
    23b4:	2085883a 	add	r2,r4,r2
    23b8:	10bfffc4 	addi	r2,r2,-1
    23bc:	e13ffc17 	ldw	r4,-16(fp)
    23c0:	2085883a 	add	r2,r4,r2
    23c4:	10800003 	ldbu	r2,0(r2)
    23c8:	10803fcc 	andi	r2,r2,255
    23cc:	1885383a 	mul	r2,r3,r2
    23d0:	1007883a 	mov	r3,r2
    23d4:	e0bffb0b 	ldhu	r2,-20(fp)
    23d8:	1885883a 	add	r2,r3,r2
    23dc:	e0bffb0d 	sth	r2,-20(fp)
   result += filter[7] * pixels[(y+1)*width+(x+0)];
    23e0:	e0bfff17 	ldw	r2,-4(fp)
    23e4:	108001c4 	addi	r2,r2,7
    23e8:	10800003 	ldbu	r2,0(r2)
    23ec:	10c03fcc 	andi	r3,r2,255
    23f0:	18c0201c 	xori	r3,r3,128
    23f4:	18ffe004 	addi	r3,r3,-128
    23f8:	e0bffe17 	ldw	r2,-8(fp)
    23fc:	10800044 	addi	r2,r2,1
    2400:	1009883a 	mov	r4,r2
    2404:	e0800117 	ldw	r2,4(fp)
    2408:	2089383a 	mul	r4,r4,r2
    240c:	e0bffd17 	ldw	r2,-12(fp)
    2410:	2085883a 	add	r2,r4,r2
    2414:	e13ffc17 	ldw	r4,-16(fp)
    2418:	2085883a 	add	r2,r4,r2
    241c:	10800003 	ldbu	r2,0(r2)
    2420:	10803fcc 	andi	r2,r2,255
    2424:	1885383a 	mul	r2,r3,r2
    2428:	1007883a 	mov	r3,r2
    242c:	e0bffb0b 	ldhu	r2,-20(fp)
    2430:	1885883a 	add	r2,r3,r2
    2434:	e0bffb0d 	sth	r2,-20(fp)
   result += filter[8] * pixels[(y+1)*width+(x+1)];
    2438:	e0bfff17 	ldw	r2,-4(fp)
    243c:	10800204 	addi	r2,r2,8
    2440:	10800003 	ldbu	r2,0(r2)
    2444:	10c03fcc 	andi	r3,r2,255
    2448:	18c0201c 	xori	r3,r3,128
    244c:	18ffe004 	addi	r3,r3,-128
    2450:	e0bffe17 	ldw	r2,-8(fp)
    2454:	10800044 	addi	r2,r2,1
    2458:	1009883a 	mov	r4,r2
    245c:	e0800117 	ldw	r2,4(fp)
    2460:	2089383a 	mul	r4,r4,r2
    2464:	e0bffd17 	ldw	r2,-12(fp)
    2468:	2085883a 	add	r2,r4,r2
    246c:	10800044 	addi	r2,r2,1
    2470:	e13ffc17 	ldw	r4,-16(fp)
    2474:	2085883a 	add	r2,r4,r2
    2478:	10800003 	ldbu	r2,0(r2)
    247c:	10803fcc 	andi	r2,r2,255
    2480:	1885383a 	mul	r2,r3,r2
    2484:	1007883a 	mov	r3,r2
    2488:	e0bffb0b 	ldhu	r2,-20(fp)
    248c:	1885883a 	add	r2,r3,r2
    2490:	e0bffb0d 	sth	r2,-20(fp)

   return result;
    2494:	e0bffb0b 	ldhu	r2,-20(fp)
}
    2498:	e037883a 	mov	sp,fp
    249c:	df000017 	ldw	fp,0(sp)
    24a0:	dec00104 	addi	sp,sp,4
    24a4:	f800283a 	ret

000024a8 <sobel_x>:


void sobel_x( unsigned char *source ) {
    24a8:	defff904 	addi	sp,sp,-28
    24ac:	dfc00615 	stw	ra,24(sp)
    24b0:	df000515 	stw	fp,20(sp)
    24b4:	dc000415 	stw	r16,16(sp)
    24b8:	df000504 	addi	fp,sp,20
    24bc:	e13ffe15 	stw	r4,-8(fp)
   int x,y;

   for (y = 1 ; y < (sobel_height-1) ; y++) {
    24c0:	00800044 	movi	r2,1
    24c4:	e0bffd15 	stw	r2,-12(fp)
    24c8:	00001e06 	br	2544 <sobel_x+0x9c>
      for (x = 1 ; x < (sobel_width-1) ; x++) {
    24cc:	00800044 	movi	r2,1
    24d0:	e0bffc15 	stw	r2,-16(fp)
    24d4:	00001406 	br	2528 <sobel_x+0x80>
         sobel_x_result[y*sobel_width+x] = sobel_mac(source,x,y,gx_array,sobel_width);
    24d8:	d0e6d217 	ldw	r3,-25784(gp)
    24dc:	d126cf17 	ldw	r4,-25796(gp)
    24e0:	e0bffd17 	ldw	r2,-12(fp)
    24e4:	2089383a 	mul	r4,r4,r2
    24e8:	e0bffc17 	ldw	r2,-16(fp)
    24ec:	2085883a 	add	r2,r4,r2
    24f0:	1085883a 	add	r2,r2,r2
    24f4:	18a1883a 	add	r16,r3,r2
    24f8:	d0a6cf17 	ldw	r2,-25796(gp)
    24fc:	d8800015 	stw	r2,0(sp)
    2500:	01c00074 	movhi	r7,1
    2504:	39c966c4 	addi	r7,r7,9627
    2508:	e1bffd17 	ldw	r6,-12(fp)
    250c:	e17ffc17 	ldw	r5,-16(fp)
    2510:	e13ffe17 	ldw	r4,-8(fp)
    2514:	0001ea00 	call	1ea0 <sobel_mac>
    2518:	8080000d 	sth	r2,0(r16)

void sobel_x( unsigned char *source ) {
   int x,y;

   for (y = 1 ; y < (sobel_height-1) ; y++) {
      for (x = 1 ; x < (sobel_width-1) ; x++) {
    251c:	e0bffc17 	ldw	r2,-16(fp)
    2520:	10800044 	addi	r2,r2,1
    2524:	e0bffc15 	stw	r2,-16(fp)
    2528:	d0a6cf17 	ldw	r2,-25796(gp)
    252c:	10bfffc4 	addi	r2,r2,-1
    2530:	e0fffc17 	ldw	r3,-16(fp)
    2534:	18bfe816 	blt	r3,r2,24d8 <sobel_x+0x30>


void sobel_x( unsigned char *source ) {
   int x,y;

   for (y = 1 ; y < (sobel_height-1) ; y++) {
    2538:	e0bffd17 	ldw	r2,-12(fp)
    253c:	10800044 	addi	r2,r2,1
    2540:	e0bffd15 	stw	r2,-12(fp)
    2544:	d0a6d117 	ldw	r2,-25788(gp)
    2548:	10bfffc4 	addi	r2,r2,-1
    254c:	e0fffd17 	ldw	r3,-12(fp)
    2550:	18bfde16 	blt	r3,r2,24cc <sobel_x+0x24>
      for (x = 1 ; x < (sobel_width-1) ; x++) {
         sobel_x_result[y*sobel_width+x] = sobel_mac(source,x,y,gx_array,sobel_width);
      }
   }
}
    2554:	0001883a 	nop
    2558:	e6ffff04 	addi	sp,fp,-4
    255c:	dfc00217 	ldw	ra,8(sp)
    2560:	df000117 	ldw	fp,4(sp)
    2564:	dc000017 	ldw	r16,0(sp)
    2568:	dec00304 	addi	sp,sp,12
    256c:	f800283a 	ret

00002570 <sobel_x_inline>:

void sobel_x_inline(unsigned char *source){
    2570:	defffa04 	addi	sp,sp,-24
    2574:	df000515 	stw	fp,20(sp)
    2578:	df000504 	addi	fp,sp,20
    257c:	e13fff15 	stw	r4,-4(fp)
   int x,y;


   short dy,dx;
   short result = 0;
    2580:	e03ffe0d 	sth	zero,-8(fp)
   char maskValue = 0;
    2584:	e03ffe85 	stb	zero,-6(fp)


   for (y = 1 ; y < (sobel_height-1) ; y++) {
    2588:	00800044 	movi	r2,1
    258c:	e0bffc15 	stw	r2,-16(fp)
    2590:	00004d06 	br	26c8 <sobel_x_inline+0x158>
	  for (x = 1 ; x < (sobel_width-1) ; x++) {
    2594:	00800044 	movi	r2,1
    2598:	e0bffb15 	stw	r2,-20(fp)
    259c:	00004306 	br	26ac <sobel_x_inline+0x13c>
		  // Sobel_mac function
		  result = 0;
    25a0:	e03ffe0d 	sth	zero,-8(fp)
		   for (dy = -1 ; dy < 2 ; dy++) {
    25a4:	00bfffc4 	movi	r2,-1
    25a8:	e0bffd0d 	sth	r2,-12(fp)
    25ac:	00002f06 	br	266c <sobel_x_inline+0xfc>
		      for (dx = -1 ; dx < 2 ; dx++) {
    25b0:	00bfffc4 	movi	r2,-1
    25b4:	e0bffd8d 	sth	r2,-10(fp)
    25b8:	00002606 	br	2654 <sobel_x_inline+0xe4>
		    	  maskValue = gx_array[(dy+1)*3+(dx+1)];
    25bc:	e0bffd0f 	ldh	r2,-12(fp)
    25c0:	10c00044 	addi	r3,r2,1
    25c4:	1805883a 	mov	r2,r3
    25c8:	1085883a 	add	r2,r2,r2
    25cc:	10c7883a 	add	r3,r2,r3
    25d0:	e0bffd8f 	ldh	r2,-10(fp)
    25d4:	10800044 	addi	r2,r2,1
    25d8:	1887883a 	add	r3,r3,r2
    25dc:	1805883a 	mov	r2,r3
    25e0:	1085883a 	add	r2,r2,r2
    25e4:	10c5883a 	add	r2,r2,r3
    25e8:	00c00074 	movhi	r3,1
    25ec:	18c966c4 	addi	r3,r3,9627
    25f0:	10c5883a 	add	r2,r2,r3
    25f4:	e0bffe85 	stb	r2,-6(fp)
		         result += source[(y+dy)*sobel_width+(x+dx)] * maskValue;
    25f8:	e0fffd0f 	ldh	r3,-12(fp)
    25fc:	e0bffc17 	ldw	r2,-16(fp)
    2600:	1887883a 	add	r3,r3,r2
    2604:	d0a6cf17 	ldw	r2,-25796(gp)
    2608:	1887383a 	mul	r3,r3,r2
    260c:	e13ffd8f 	ldh	r4,-10(fp)
    2610:	e0bffb17 	ldw	r2,-20(fp)
    2614:	2085883a 	add	r2,r4,r2
    2618:	1885883a 	add	r2,r3,r2
    261c:	1007883a 	mov	r3,r2
    2620:	e0bfff17 	ldw	r2,-4(fp)
    2624:	10c5883a 	add	r2,r2,r3
    2628:	10800003 	ldbu	r2,0(r2)
    262c:	10c03fcc 	andi	r3,r2,255
    2630:	e0bffe87 	ldb	r2,-6(fp)
    2634:	1885383a 	mul	r2,r3,r2
    2638:	1007883a 	mov	r3,r2
    263c:	e0bffe0b 	ldhu	r2,-8(fp)
    2640:	1885883a 	add	r2,r3,r2
    2644:	e0bffe0d 	sth	r2,-8(fp)
   for (y = 1 ; y < (sobel_height-1) ; y++) {
	  for (x = 1 ; x < (sobel_width-1) ; x++) {
		  // Sobel_mac function
		  result = 0;
		   for (dy = -1 ; dy < 2 ; dy++) {
		      for (dx = -1 ; dx < 2 ; dx++) {
    2648:	e0bffd8b 	ldhu	r2,-10(fp)
    264c:	10800044 	addi	r2,r2,1
    2650:	e0bffd8d 	sth	r2,-10(fp)
    2654:	e0bffd8f 	ldh	r2,-10(fp)
    2658:	10800090 	cmplti	r2,r2,2
    265c:	103fd71e 	bne	r2,zero,25bc <sobel_x_inline+0x4c>

   for (y = 1 ; y < (sobel_height-1) ; y++) {
	  for (x = 1 ; x < (sobel_width-1) ; x++) {
		  // Sobel_mac function
		  result = 0;
		   for (dy = -1 ; dy < 2 ; dy++) {
    2660:	e0bffd0b 	ldhu	r2,-12(fp)
    2664:	10800044 	addi	r2,r2,1
    2668:	e0bffd0d 	sth	r2,-12(fp)
    266c:	e0bffd0f 	ldh	r2,-12(fp)
    2670:	10800090 	cmplti	r2,r2,2
    2674:	103fce1e 	bne	r2,zero,25b0 <sobel_x_inline+0x40>
		    	  maskValue = gx_array[(dy+1)*3+(dx+1)];
		         result += source[(y+dy)*sobel_width+(x+dx)] * maskValue;
		      }
		   }

		 sobel_x_result[y*sobel_width+x] = result;
    2678:	d0e6d217 	ldw	r3,-25784(gp)
    267c:	d126cf17 	ldw	r4,-25796(gp)
    2680:	e0bffc17 	ldw	r2,-16(fp)
    2684:	2089383a 	mul	r4,r4,r2
    2688:	e0bffb17 	ldw	r2,-20(fp)
    268c:	2085883a 	add	r2,r4,r2
    2690:	1085883a 	add	r2,r2,r2
    2694:	1885883a 	add	r2,r3,r2
    2698:	e0fffe0b 	ldhu	r3,-8(fp)
    269c:	10c0000d 	sth	r3,0(r2)
   short result = 0;
   char maskValue = 0;


   for (y = 1 ; y < (sobel_height-1) ; y++) {
	  for (x = 1 ; x < (sobel_width-1) ; x++) {
    26a0:	e0bffb17 	ldw	r2,-20(fp)
    26a4:	10800044 	addi	r2,r2,1
    26a8:	e0bffb15 	stw	r2,-20(fp)
    26ac:	d0a6cf17 	ldw	r2,-25796(gp)
    26b0:	10bfffc4 	addi	r2,r2,-1
    26b4:	e0fffb17 	ldw	r3,-20(fp)
    26b8:	18bfb916 	blt	r3,r2,25a0 <sobel_x_inline+0x30>
   short dy,dx;
   short result = 0;
   char maskValue = 0;


   for (y = 1 ; y < (sobel_height-1) ; y++) {
    26bc:	e0bffc17 	ldw	r2,-16(fp)
    26c0:	10800044 	addi	r2,r2,1
    26c4:	e0bffc15 	stw	r2,-16(fp)
    26c8:	d0a6d117 	ldw	r2,-25788(gp)
    26cc:	10bfffc4 	addi	r2,r2,-1
    26d0:	e0fffc17 	ldw	r3,-16(fp)
    26d4:	18bfaf16 	blt	r3,r2,2594 <sobel_x_inline+0x24>
		   }

		 sobel_x_result[y*sobel_width+x] = result;
	  }
   }
}
    26d8:	0001883a 	nop
    26dc:	e037883a 	mov	sp,fp
    26e0:	df000017 	ldw	fp,0(sp)
    26e4:	dec00104 	addi	sp,sp,4
    26e8:	f800283a 	ret

000026ec <sobel_x_with_rgb>:

void sobel_x_with_rgb( unsigned char *source ) {
    26ec:	defff904 	addi	sp,sp,-28
    26f0:	dfc00615 	stw	ra,24(sp)
    26f4:	df000515 	stw	fp,20(sp)
    26f8:	df000504 	addi	fp,sp,20
    26fc:	e13fff15 	stw	r4,-4(fp)
   int x,y;
   short result;

   for (y = 1 ; y < (sobel_height-1) ; y++) {
    2700:	00800044 	movi	r2,1
    2704:	e0bffd15 	stw	r2,-12(fp)
    2708:	00003d06 	br	2800 <sobel_x_with_rgb+0x114>
      for (x = 1 ; x < (sobel_width-1) ; x++) {
    270c:	00800044 	movi	r2,1
    2710:	e0bffc15 	stw	r2,-16(fp)
    2714:	00003306 	br	27e4 <sobel_x_with_rgb+0xf8>
    	  result = sobel_mac(source,x,y,gx_array,sobel_width);
    2718:	d0a6cf17 	ldw	r2,-25796(gp)
    271c:	d8800015 	stw	r2,0(sp)
    2720:	01c00074 	movhi	r7,1
    2724:	39c966c4 	addi	r7,r7,9627
    2728:	e1bffd17 	ldw	r6,-12(fp)
    272c:	e17ffc17 	ldw	r5,-16(fp)
    2730:	e13fff17 	ldw	r4,-4(fp)
    2734:	0001ea00 	call	1ea0 <sobel_mac>
    2738:	e0bffe0d 	sth	r2,-8(fp)
          sobel_x_result[y*sobel_width+x] = result;
    273c:	d0e6d217 	ldw	r3,-25784(gp)
    2740:	d126cf17 	ldw	r4,-25796(gp)
    2744:	e0bffd17 	ldw	r2,-12(fp)
    2748:	2089383a 	mul	r4,r4,r2
    274c:	e0bffc17 	ldw	r2,-16(fp)
    2750:	2085883a 	add	r2,r4,r2
    2754:	1085883a 	add	r2,r2,r2
    2758:	1885883a 	add	r2,r3,r2
    275c:	e0fffe0b 	ldhu	r3,-8(fp)
    2760:	10c0000d 	sth	r3,0(r2)
          if (result < 0) {
    2764:	e0bffe0f 	ldh	r2,-8(fp)
    2768:	10000e0e 	bge	r2,zero,27a4 <sobel_x_with_rgb+0xb8>
        	  sobel_rgb565[y*sobel_width+x] = ((-result)>>2)<<5;
    276c:	d0e6d417 	ldw	r3,-25776(gp)
    2770:	d126cf17 	ldw	r4,-25796(gp)
    2774:	e0bffd17 	ldw	r2,-12(fp)
    2778:	2089383a 	mul	r4,r4,r2
    277c:	e0bffc17 	ldw	r2,-16(fp)
    2780:	2085883a 	add	r2,r4,r2
    2784:	1085883a 	add	r2,r2,r2
    2788:	1885883a 	add	r2,r3,r2
    278c:	e0fffe0f 	ldh	r3,-8(fp)
    2790:	00c7c83a 	sub	r3,zero,r3
    2794:	1807d0ba 	srai	r3,r3,2
    2798:	1806917a 	slli	r3,r3,5
    279c:	10c0000d 	sth	r3,0(r2)
    27a0:	00000d06 	br	27d8 <sobel_x_with_rgb+0xec>
          } else {
        	  sobel_rgb565[y*sobel_width+x] = ((result>>3)&0x1F)<<11;
    27a4:	d0e6d417 	ldw	r3,-25776(gp)
    27a8:	d126cf17 	ldw	r4,-25796(gp)
    27ac:	e0bffd17 	ldw	r2,-12(fp)
    27b0:	2089383a 	mul	r4,r4,r2
    27b4:	e0bffc17 	ldw	r2,-16(fp)
    27b8:	2085883a 	add	r2,r4,r2
    27bc:	1085883a 	add	r2,r2,r2
    27c0:	1885883a 	add	r2,r3,r2
    27c4:	e0fffe0f 	ldh	r3,-8(fp)
    27c8:	1807d0fa 	srai	r3,r3,3
    27cc:	18ffffcc 	andi	r3,r3,65535
    27d0:	180692fa 	slli	r3,r3,11
    27d4:	10c0000d 	sth	r3,0(r2)
void sobel_x_with_rgb( unsigned char *source ) {
   int x,y;
   short result;

   for (y = 1 ; y < (sobel_height-1) ; y++) {
      for (x = 1 ; x < (sobel_width-1) ; x++) {
    27d8:	e0bffc17 	ldw	r2,-16(fp)
    27dc:	10800044 	addi	r2,r2,1
    27e0:	e0bffc15 	stw	r2,-16(fp)
    27e4:	d0a6cf17 	ldw	r2,-25796(gp)
    27e8:	10bfffc4 	addi	r2,r2,-1
    27ec:	e0fffc17 	ldw	r3,-16(fp)
    27f0:	18bfc916 	blt	r3,r2,2718 <sobel_x_with_rgb+0x2c>

void sobel_x_with_rgb( unsigned char *source ) {
   int x,y;
   short result;

   for (y = 1 ; y < (sobel_height-1) ; y++) {
    27f4:	e0bffd17 	ldw	r2,-12(fp)
    27f8:	10800044 	addi	r2,r2,1
    27fc:	e0bffd15 	stw	r2,-12(fp)
    2800:	d0a6d117 	ldw	r2,-25788(gp)
    2804:	10bfffc4 	addi	r2,r2,-1
    2808:	e0fffd17 	ldw	r3,-12(fp)
    280c:	18bfbf16 	blt	r3,r2,270c <sobel_x_with_rgb+0x20>
          } else {
        	  sobel_rgb565[y*sobel_width+x] = ((result>>3)&0x1F)<<11;
          }
      }
   }
}
    2810:	0001883a 	nop
    2814:	e037883a 	mov	sp,fp
    2818:	dfc00117 	ldw	ra,4(sp)
    281c:	df000017 	ldw	fp,0(sp)
    2820:	dec00204 	addi	sp,sp,8
    2824:	f800283a 	ret

00002828 <sobel_y>:

void sobel_y( unsigned char *source ) {
    2828:	defff904 	addi	sp,sp,-28
    282c:	dfc00615 	stw	ra,24(sp)
    2830:	df000515 	stw	fp,20(sp)
    2834:	dc000415 	stw	r16,16(sp)
    2838:	df000504 	addi	fp,sp,20
    283c:	e13ffe15 	stw	r4,-8(fp)
   int x,y;

   for (y = 1 ; y < (sobel_height-1) ; y++) {
    2840:	00800044 	movi	r2,1
    2844:	e0bffd15 	stw	r2,-12(fp)
    2848:	00001e06 	br	28c4 <sobel_y+0x9c>
      for (x = 1 ; x < (sobel_width-1) ; x++) {
    284c:	00800044 	movi	r2,1
    2850:	e0bffc15 	stw	r2,-16(fp)
    2854:	00001406 	br	28a8 <sobel_y+0x80>
         sobel_y_result[y*sobel_width+x] = sobel_mac(source,x,y,gy_array,sobel_width);
    2858:	d0e6d317 	ldw	r3,-25780(gp)
    285c:	d126cf17 	ldw	r4,-25796(gp)
    2860:	e0bffd17 	ldw	r2,-12(fp)
    2864:	2089383a 	mul	r4,r4,r2
    2868:	e0bffc17 	ldw	r2,-16(fp)
    286c:	2085883a 	add	r2,r4,r2
    2870:	1085883a 	add	r2,r2,r2
    2874:	18a1883a 	add	r16,r3,r2
    2878:	d0a6cf17 	ldw	r2,-25796(gp)
    287c:	d8800015 	stw	r2,0(sp)
    2880:	01c00074 	movhi	r7,1
    2884:	39c96904 	addi	r7,r7,9636
    2888:	e1bffd17 	ldw	r6,-12(fp)
    288c:	e17ffc17 	ldw	r5,-16(fp)
    2890:	e13ffe17 	ldw	r4,-8(fp)
    2894:	0001ea00 	call	1ea0 <sobel_mac>
    2898:	8080000d 	sth	r2,0(r16)

void sobel_y( unsigned char *source ) {
   int x,y;

   for (y = 1 ; y < (sobel_height-1) ; y++) {
      for (x = 1 ; x < (sobel_width-1) ; x++) {
    289c:	e0bffc17 	ldw	r2,-16(fp)
    28a0:	10800044 	addi	r2,r2,1
    28a4:	e0bffc15 	stw	r2,-16(fp)
    28a8:	d0a6cf17 	ldw	r2,-25796(gp)
    28ac:	10bfffc4 	addi	r2,r2,-1
    28b0:	e0fffc17 	ldw	r3,-16(fp)
    28b4:	18bfe816 	blt	r3,r2,2858 <sobel_y+0x30>
}

void sobel_y( unsigned char *source ) {
   int x,y;

   for (y = 1 ; y < (sobel_height-1) ; y++) {
    28b8:	e0bffd17 	ldw	r2,-12(fp)
    28bc:	10800044 	addi	r2,r2,1
    28c0:	e0bffd15 	stw	r2,-12(fp)
    28c4:	d0a6d117 	ldw	r2,-25788(gp)
    28c8:	10bfffc4 	addi	r2,r2,-1
    28cc:	e0fffd17 	ldw	r3,-12(fp)
    28d0:	18bfde16 	blt	r3,r2,284c <sobel_y+0x24>
      for (x = 1 ; x < (sobel_width-1) ; x++) {
         sobel_y_result[y*sobel_width+x] = sobel_mac(source,x,y,gy_array,sobel_width);
      }
   }
}
    28d4:	0001883a 	nop
    28d8:	e6ffff04 	addi	sp,fp,-4
    28dc:	dfc00217 	ldw	ra,8(sp)
    28e0:	df000117 	ldw	fp,4(sp)
    28e4:	dc000017 	ldw	r16,0(sp)
    28e8:	dec00304 	addi	sp,sp,12
    28ec:	f800283a 	ret

000028f0 <sobel_y_inline>:

void sobel_y_inline(unsigned char *source){
    28f0:	defffa04 	addi	sp,sp,-24
    28f4:	df000515 	stw	fp,20(sp)
    28f8:	df000504 	addi	fp,sp,20
    28fc:	e13fff15 	stw	r4,-4(fp)
   int x,y;


   short dy,dx;
   short result = 0;
    2900:	e03ffe0d 	sth	zero,-8(fp)
   char maskValue = 0;
    2904:	e03ffe85 	stb	zero,-6(fp)


   for (y = 1 ; y < (sobel_height-1) ; y++) {
    2908:	00800044 	movi	r2,1
    290c:	e0bffc15 	stw	r2,-16(fp)
    2910:	00004d06 	br	2a48 <sobel_y_inline+0x158>
	  for (x = 1 ; x < (sobel_width-1) ; x++) {
    2914:	00800044 	movi	r2,1
    2918:	e0bffb15 	stw	r2,-20(fp)
    291c:	00004306 	br	2a2c <sobel_y_inline+0x13c>
		  // Sobel_mac function
		  result = 0;
    2920:	e03ffe0d 	sth	zero,-8(fp)
		   for (dy = -1 ; dy < 2 ; dy++) {
    2924:	00bfffc4 	movi	r2,-1
    2928:	e0bffd0d 	sth	r2,-12(fp)
    292c:	00002f06 	br	29ec <sobel_y_inline+0xfc>
		      for (dx = -1 ; dx < 2 ; dx++) {
    2930:	00bfffc4 	movi	r2,-1
    2934:	e0bffd8d 	sth	r2,-10(fp)
    2938:	00002606 	br	29d4 <sobel_y_inline+0xe4>

		    	  maskValue = gy_array[(dy+1)*3+(dx+1)];
    293c:	e0bffd0f 	ldh	r2,-12(fp)
    2940:	10c00044 	addi	r3,r2,1
    2944:	1805883a 	mov	r2,r3
    2948:	1085883a 	add	r2,r2,r2
    294c:	10c7883a 	add	r3,r2,r3
    2950:	e0bffd8f 	ldh	r2,-10(fp)
    2954:	10800044 	addi	r2,r2,1
    2958:	1887883a 	add	r3,r3,r2
    295c:	1805883a 	mov	r2,r3
    2960:	1085883a 	add	r2,r2,r2
    2964:	10c5883a 	add	r2,r2,r3
    2968:	00c00074 	movhi	r3,1
    296c:	18c96904 	addi	r3,r3,9636
    2970:	10c5883a 	add	r2,r2,r3
    2974:	e0bffe85 	stb	r2,-6(fp)
		         result += source[(y+dy)*sobel_width+(x+dx)] * maskValue;
    2978:	e0fffd0f 	ldh	r3,-12(fp)
    297c:	e0bffc17 	ldw	r2,-16(fp)
    2980:	1887883a 	add	r3,r3,r2
    2984:	d0a6cf17 	ldw	r2,-25796(gp)
    2988:	1887383a 	mul	r3,r3,r2
    298c:	e13ffd8f 	ldh	r4,-10(fp)
    2990:	e0bffb17 	ldw	r2,-20(fp)
    2994:	2085883a 	add	r2,r4,r2
    2998:	1885883a 	add	r2,r3,r2
    299c:	1007883a 	mov	r3,r2
    29a0:	e0bfff17 	ldw	r2,-4(fp)
    29a4:	10c5883a 	add	r2,r2,r3
    29a8:	10800003 	ldbu	r2,0(r2)
    29ac:	10c03fcc 	andi	r3,r2,255
    29b0:	e0bffe87 	ldb	r2,-6(fp)
    29b4:	1885383a 	mul	r2,r3,r2
    29b8:	1007883a 	mov	r3,r2
    29bc:	e0bffe0b 	ldhu	r2,-8(fp)
    29c0:	1885883a 	add	r2,r3,r2
    29c4:	e0bffe0d 	sth	r2,-8(fp)
   for (y = 1 ; y < (sobel_height-1) ; y++) {
	  for (x = 1 ; x < (sobel_width-1) ; x++) {
		  // Sobel_mac function
		  result = 0;
		   for (dy = -1 ; dy < 2 ; dy++) {
		      for (dx = -1 ; dx < 2 ; dx++) {
    29c8:	e0bffd8b 	ldhu	r2,-10(fp)
    29cc:	10800044 	addi	r2,r2,1
    29d0:	e0bffd8d 	sth	r2,-10(fp)
    29d4:	e0bffd8f 	ldh	r2,-10(fp)
    29d8:	10800090 	cmplti	r2,r2,2
    29dc:	103fd71e 	bne	r2,zero,293c <sobel_y_inline+0x4c>

   for (y = 1 ; y < (sobel_height-1) ; y++) {
	  for (x = 1 ; x < (sobel_width-1) ; x++) {
		  // Sobel_mac function
		  result = 0;
		   for (dy = -1 ; dy < 2 ; dy++) {
    29e0:	e0bffd0b 	ldhu	r2,-12(fp)
    29e4:	10800044 	addi	r2,r2,1
    29e8:	e0bffd0d 	sth	r2,-12(fp)
    29ec:	e0bffd0f 	ldh	r2,-12(fp)
    29f0:	10800090 	cmplti	r2,r2,2
    29f4:	103fce1e 	bne	r2,zero,2930 <sobel_y_inline+0x40>
		    	  maskValue = gy_array[(dy+1)*3+(dx+1)];
		         result += source[(y+dy)*sobel_width+(x+dx)] * maskValue;
		      }
		   }

		 sobel_y_result[y*sobel_width+x] = result;
    29f8:	d0e6d317 	ldw	r3,-25780(gp)
    29fc:	d126cf17 	ldw	r4,-25796(gp)
    2a00:	e0bffc17 	ldw	r2,-16(fp)
    2a04:	2089383a 	mul	r4,r4,r2
    2a08:	e0bffb17 	ldw	r2,-20(fp)
    2a0c:	2085883a 	add	r2,r4,r2
    2a10:	1085883a 	add	r2,r2,r2
    2a14:	1885883a 	add	r2,r3,r2
    2a18:	e0fffe0b 	ldhu	r3,-8(fp)
    2a1c:	10c0000d 	sth	r3,0(r2)
   short result = 0;
   char maskValue = 0;


   for (y = 1 ; y < (sobel_height-1) ; y++) {
	  for (x = 1 ; x < (sobel_width-1) ; x++) {
    2a20:	e0bffb17 	ldw	r2,-20(fp)
    2a24:	10800044 	addi	r2,r2,1
    2a28:	e0bffb15 	stw	r2,-20(fp)
    2a2c:	d0a6cf17 	ldw	r2,-25796(gp)
    2a30:	10bfffc4 	addi	r2,r2,-1
    2a34:	e0fffb17 	ldw	r3,-20(fp)
    2a38:	18bfb916 	blt	r3,r2,2920 <sobel_y_inline+0x30>
   short dy,dx;
   short result = 0;
   char maskValue = 0;


   for (y = 1 ; y < (sobel_height-1) ; y++) {
    2a3c:	e0bffc17 	ldw	r2,-16(fp)
    2a40:	10800044 	addi	r2,r2,1
    2a44:	e0bffc15 	stw	r2,-16(fp)
    2a48:	d0a6d117 	ldw	r2,-25788(gp)
    2a4c:	10bfffc4 	addi	r2,r2,-1
    2a50:	e0fffc17 	ldw	r3,-16(fp)
    2a54:	18bfaf16 	blt	r3,r2,2914 <sobel_y_inline+0x24>
		   }

		 sobel_y_result[y*sobel_width+x] = result;
	  }
   }
}
    2a58:	0001883a 	nop
    2a5c:	e037883a 	mov	sp,fp
    2a60:	df000017 	ldw	fp,0(sp)
    2a64:	dec00104 	addi	sp,sp,4
    2a68:	f800283a 	ret

00002a6c <sobel_y_with_rgb>:

void sobel_y_with_rgb( unsigned char *source ) {
    2a6c:	defff904 	addi	sp,sp,-28
    2a70:	dfc00615 	stw	ra,24(sp)
    2a74:	df000515 	stw	fp,20(sp)
    2a78:	df000504 	addi	fp,sp,20
    2a7c:	e13fff15 	stw	r4,-4(fp)
   int x,y;
   short result;

   for (y = 1 ; y < (sobel_height-1) ; y++) {
    2a80:	00800044 	movi	r2,1
    2a84:	e0bffd15 	stw	r2,-12(fp)
    2a88:	00003d06 	br	2b80 <sobel_y_with_rgb+0x114>
      for (x = 1 ; x < (sobel_width-1) ; x++) {
    2a8c:	00800044 	movi	r2,1
    2a90:	e0bffc15 	stw	r2,-16(fp)
    2a94:	00003306 	br	2b64 <sobel_y_with_rgb+0xf8>
    	  result = sobel_mac(source,x,y,gy_array,sobel_width);
    2a98:	d0a6cf17 	ldw	r2,-25796(gp)
    2a9c:	d8800015 	stw	r2,0(sp)
    2aa0:	01c00074 	movhi	r7,1
    2aa4:	39c96904 	addi	r7,r7,9636
    2aa8:	e1bffd17 	ldw	r6,-12(fp)
    2aac:	e17ffc17 	ldw	r5,-16(fp)
    2ab0:	e13fff17 	ldw	r4,-4(fp)
    2ab4:	0001ea00 	call	1ea0 <sobel_mac>
    2ab8:	e0bffe0d 	sth	r2,-8(fp)
         sobel_y_result[y*sobel_width+x] = result;
    2abc:	d0e6d317 	ldw	r3,-25780(gp)
    2ac0:	d126cf17 	ldw	r4,-25796(gp)
    2ac4:	e0bffd17 	ldw	r2,-12(fp)
    2ac8:	2089383a 	mul	r4,r4,r2
    2acc:	e0bffc17 	ldw	r2,-16(fp)
    2ad0:	2085883a 	add	r2,r4,r2
    2ad4:	1085883a 	add	r2,r2,r2
    2ad8:	1885883a 	add	r2,r3,r2
    2adc:	e0fffe0b 	ldhu	r3,-8(fp)
    2ae0:	10c0000d 	sth	r3,0(r2)
         if (result < 0) {
    2ae4:	e0bffe0f 	ldh	r2,-8(fp)
    2ae8:	10000e0e 	bge	r2,zero,2b24 <sobel_y_with_rgb+0xb8>
       	  sobel_rgb565[y*sobel_width+x] = ((-result)>>2)<<5;
    2aec:	d0e6d417 	ldw	r3,-25776(gp)
    2af0:	d126cf17 	ldw	r4,-25796(gp)
    2af4:	e0bffd17 	ldw	r2,-12(fp)
    2af8:	2089383a 	mul	r4,r4,r2
    2afc:	e0bffc17 	ldw	r2,-16(fp)
    2b00:	2085883a 	add	r2,r4,r2
    2b04:	1085883a 	add	r2,r2,r2
    2b08:	1885883a 	add	r2,r3,r2
    2b0c:	e0fffe0f 	ldh	r3,-8(fp)
    2b10:	00c7c83a 	sub	r3,zero,r3
    2b14:	1807d0ba 	srai	r3,r3,2
    2b18:	1806917a 	slli	r3,r3,5
    2b1c:	10c0000d 	sth	r3,0(r2)
    2b20:	00000d06 	br	2b58 <sobel_y_with_rgb+0xec>
         } else {
       	  sobel_rgb565[y*sobel_width+x] = ((result>>3)&0x1F)<<11;
    2b24:	d0e6d417 	ldw	r3,-25776(gp)
    2b28:	d126cf17 	ldw	r4,-25796(gp)
    2b2c:	e0bffd17 	ldw	r2,-12(fp)
    2b30:	2089383a 	mul	r4,r4,r2
    2b34:	e0bffc17 	ldw	r2,-16(fp)
    2b38:	2085883a 	add	r2,r4,r2
    2b3c:	1085883a 	add	r2,r2,r2
    2b40:	1885883a 	add	r2,r3,r2
    2b44:	e0fffe0f 	ldh	r3,-8(fp)
    2b48:	1807d0fa 	srai	r3,r3,3
    2b4c:	18ffffcc 	andi	r3,r3,65535
    2b50:	180692fa 	slli	r3,r3,11
    2b54:	10c0000d 	sth	r3,0(r2)
void sobel_y_with_rgb( unsigned char *source ) {
   int x,y;
   short result;

   for (y = 1 ; y < (sobel_height-1) ; y++) {
      for (x = 1 ; x < (sobel_width-1) ; x++) {
    2b58:	e0bffc17 	ldw	r2,-16(fp)
    2b5c:	10800044 	addi	r2,r2,1
    2b60:	e0bffc15 	stw	r2,-16(fp)
    2b64:	d0a6cf17 	ldw	r2,-25796(gp)
    2b68:	10bfffc4 	addi	r2,r2,-1
    2b6c:	e0fffc17 	ldw	r3,-16(fp)
    2b70:	18bfc916 	blt	r3,r2,2a98 <sobel_y_with_rgb+0x2c>

void sobel_y_with_rgb( unsigned char *source ) {
   int x,y;
   short result;

   for (y = 1 ; y < (sobel_height-1) ; y++) {
    2b74:	e0bffd17 	ldw	r2,-12(fp)
    2b78:	10800044 	addi	r2,r2,1
    2b7c:	e0bffd15 	stw	r2,-12(fp)
    2b80:	d0a6d117 	ldw	r2,-25788(gp)
    2b84:	10bfffc4 	addi	r2,r2,-1
    2b88:	e0fffd17 	ldw	r3,-12(fp)
    2b8c:	18bfbf16 	blt	r3,r2,2a8c <sobel_y_with_rgb+0x20>
         } else {
       	  sobel_rgb565[y*sobel_width+x] = ((result>>3)&0x1F)<<11;
         }
      }
   }
}
    2b90:	0001883a 	nop
    2b94:	e037883a 	mov	sp,fp
    2b98:	dfc00117 	ldw	ra,4(sp)
    2b9c:	df000017 	ldw	fp,0(sp)
    2ba0:	dec00204 	addi	sp,sp,8
    2ba4:	f800283a 	ret

00002ba8 <sobel_threshold>:

void sobel_threshold(short threshold) {
    2ba8:	defffa04 	addi	sp,sp,-24
    2bac:	df000515 	stw	fp,20(sp)
    2bb0:	df000504 	addi	fp,sp,20
    2bb4:	2005883a 	mov	r2,r4
    2bb8:	e0bfff0d 	sth	r2,-4(fp)
	int x,y,arrayindex;
	short sum,value;
	for (y = 1 ; y < (sobel_height-1) ; y++) {
    2bbc:	00800044 	movi	r2,1
    2bc0:	e0bffc15 	stw	r2,-16(fp)
    2bc4:	00003406 	br	2c98 <sobel_threshold+0xf0>
		for (x = 1 ; x < (sobel_width-1) ; x++) {
    2bc8:	00800044 	movi	r2,1
    2bcc:	e0bffb15 	stw	r2,-20(fp)
    2bd0:	00002a06 	br	2c7c <sobel_threshold+0xd4>
			arrayindex = (y*sobel_width)+x;
    2bd4:	d0e6cf17 	ldw	r3,-25796(gp)
    2bd8:	e0bffc17 	ldw	r2,-16(fp)
    2bdc:	1887383a 	mul	r3,r3,r2
    2be0:	e0bffb17 	ldw	r2,-20(fp)
    2be4:	1885883a 	add	r2,r3,r2
    2be8:	e0bffd15 	stw	r2,-12(fp)
			value = sobel_x_result[arrayindex];
    2bec:	d0e6d217 	ldw	r3,-25784(gp)
    2bf0:	e0bffd17 	ldw	r2,-12(fp)
    2bf4:	1085883a 	add	r2,r2,r2
    2bf8:	1885883a 	add	r2,r3,r2
    2bfc:	1080000b 	ldhu	r2,0(r2)
    2c00:	e0bffe0d 	sth	r2,-8(fp)
			sum = (value < 0) ? -value : value;
    2c04:	e0bffe0f 	ldh	r2,-8(fp)
    2c08:	1000010e 	bge	r2,zero,2c10 <sobel_threshold+0x68>
    2c0c:	0085c83a 	sub	r2,zero,r2
    2c10:	e0bffe8d 	sth	r2,-6(fp)
			value = sobel_y_result[arrayindex];
    2c14:	d0e6d317 	ldw	r3,-25780(gp)
    2c18:	e0bffd17 	ldw	r2,-12(fp)
    2c1c:	1085883a 	add	r2,r2,r2
    2c20:	1885883a 	add	r2,r3,r2
    2c24:	1080000b 	ldhu	r2,0(r2)
    2c28:	e0bffe0d 	sth	r2,-8(fp)
			sum += (value < 0) ? -value : value;
    2c2c:	e0bffe0f 	ldh	r2,-8(fp)
    2c30:	1000010e 	bge	r2,zero,2c38 <sobel_threshold+0x90>
    2c34:	0085c83a 	sub	r2,zero,r2
    2c38:	1007883a 	mov	r3,r2
    2c3c:	e0bffe8b 	ldhu	r2,-6(fp)
    2c40:	1885883a 	add	r2,r3,r2
    2c44:	e0bffe8d 	sth	r2,-6(fp)
			sobel_result[arrayindex] = (sum > threshold) ? 0xFF : 0;
    2c48:	d0e6d017 	ldw	r3,-25792(gp)
    2c4c:	e0bffd17 	ldw	r2,-12(fp)
    2c50:	1887883a 	add	r3,r3,r2
    2c54:	e0bffe8f 	ldh	r2,-6(fp)
    2c58:	e13fff0f 	ldh	r4,-4(fp)
    2c5c:	2080020e 	bge	r4,r2,2c68 <sobel_threshold+0xc0>
    2c60:	00bfffc4 	movi	r2,-1
    2c64:	00000106 	br	2c6c <sobel_threshold+0xc4>
    2c68:	0005883a 	mov	r2,zero
    2c6c:	18800005 	stb	r2,0(r3)

void sobel_threshold(short threshold) {
	int x,y,arrayindex;
	short sum,value;
	for (y = 1 ; y < (sobel_height-1) ; y++) {
		for (x = 1 ; x < (sobel_width-1) ; x++) {
    2c70:	e0bffb17 	ldw	r2,-20(fp)
    2c74:	10800044 	addi	r2,r2,1
    2c78:	e0bffb15 	stw	r2,-20(fp)
    2c7c:	d0a6cf17 	ldw	r2,-25796(gp)
    2c80:	10bfffc4 	addi	r2,r2,-1
    2c84:	e0fffb17 	ldw	r3,-20(fp)
    2c88:	18bfd216 	blt	r3,r2,2bd4 <sobel_threshold+0x2c>
}

void sobel_threshold(short threshold) {
	int x,y,arrayindex;
	short sum,value;
	for (y = 1 ; y < (sobel_height-1) ; y++) {
    2c8c:	e0bffc17 	ldw	r2,-16(fp)
    2c90:	10800044 	addi	r2,r2,1
    2c94:	e0bffc15 	stw	r2,-16(fp)
    2c98:	d0a6d117 	ldw	r2,-25788(gp)
    2c9c:	10bfffc4 	addi	r2,r2,-1
    2ca0:	e0fffc17 	ldw	r3,-16(fp)
    2ca4:	18bfc816 	blt	r3,r2,2bc8 <sobel_threshold+0x20>
			value = sobel_y_result[arrayindex];
			sum += (value < 0) ? -value : value;
			sobel_result[arrayindex] = (sum > threshold) ? 0xFF : 0;
		}
	}
}
    2ca8:	0001883a 	nop
    2cac:	e037883a 	mov	sp,fp
    2cb0:	df000017 	ldw	fp,0(sp)
    2cb4:	dec00104 	addi	sp,sp,4
    2cb8:	f800283a 	ret

00002cbc <GetSobel_rgb>:

unsigned short *GetSobel_rgb() {
    2cbc:	deffff04 	addi	sp,sp,-4
    2cc0:	df000015 	stw	fp,0(sp)
    2cc4:	d839883a 	mov	fp,sp
	return sobel_rgb565;
    2cc8:	d0a6d417 	ldw	r2,-25776(gp)
}
    2ccc:	e037883a 	mov	sp,fp
    2cd0:	df000017 	ldw	fp,0(sp)
    2cd4:	dec00104 	addi	sp,sp,4
    2cd8:	f800283a 	ret

00002cdc <GetSobelResult>:

unsigned char *GetSobelResult() {
    2cdc:	deffff04 	addi	sp,sp,-4
    2ce0:	df000015 	stw	fp,0(sp)
    2ce4:	d839883a 	mov	fp,sp
	return sobel_result;
    2ce8:	d0a6d017 	ldw	r2,-25792(gp)
}
    2cec:	e037883a 	mov	sp,fp
    2cf0:	df000017 	ldw	fp,0(sp)
    2cf4:	dec00104 	addi	sp,sp,4
    2cf8:	f800283a 	ret

00002cfc <vga_set_pointer>:
 */

#include <system.h>
#include <io.h>

void vga_set_pointer( void* image ) {
    2cfc:	defffe04 	addi	sp,sp,-8
    2d00:	df000115 	stw	fp,4(sp)
    2d04:	df000104 	addi	fp,sp,4
    2d08:	e13fff15 	stw	r4,-4(fp)
	IOWR_32DIRECT(VGA_DMA_0_BASE,0,(int)image);
    2d0c:	e0ffff17 	ldw	r3,-4(fp)
    2d10:	00804034 	movhi	r2,256
    2d14:	10843404 	addi	r2,r2,4304
    2d18:	10c00035 	stwio	r3,0(r2)
}
    2d1c:	0001883a 	nop
    2d20:	e037883a 	mov	sp,fp
    2d24:	df000017 	ldw	fp,0(sp)
    2d28:	dec00104 	addi	sp,sp,4
    2d2c:	f800283a 	ret

00002d30 <vga_set_swap>:

void vga_set_swap(char swap) {
    2d30:	defffe04 	addi	sp,sp,-8
    2d34:	df000115 	stw	fp,4(sp)
    2d38:	df000104 	addi	fp,sp,4
    2d3c:	2005883a 	mov	r2,r4
    2d40:	e0bfff05 	stb	r2,-4(fp)
	IOWR_8DIRECT(VGA_DMA_0_BASE,4,swap);
    2d44:	e0ffff07 	ldb	r3,-4(fp)
    2d48:	00804034 	movhi	r2,256
    2d4c:	10843504 	addi	r2,r2,4308
    2d50:	10c00025 	stbio	r3,0(r2)
}
    2d54:	0001883a 	nop
    2d58:	e037883a 	mov	sp,fp
    2d5c:	df000017 	ldw	fp,0(sp)
    2d60:	dec00104 	addi	sp,sp,4
    2d64:	f800283a 	ret

00002d68 <malloc>:
    2d68:	00800074 	movhi	r2,1
    2d6c:	1090d804 	addi	r2,r2,17248
    2d70:	200b883a 	mov	r5,r4
    2d74:	11000017 	ldw	r4,0(r2)
    2d78:	0002d901 	jmpi	2d90 <_malloc_r>

00002d7c <free>:
    2d7c:	00800074 	movhi	r2,1
    2d80:	1090d804 	addi	r2,r2,17248
    2d84:	200b883a 	mov	r5,r4
    2d88:	11000017 	ldw	r4,0(r2)
    2d8c:	0007be01 	jmpi	7be0 <_free_r>

00002d90 <_malloc_r>:
    2d90:	defff504 	addi	sp,sp,-44
    2d94:	dc800315 	stw	r18,12(sp)
    2d98:	dfc00a15 	stw	ra,40(sp)
    2d9c:	df000915 	stw	fp,36(sp)
    2da0:	ddc00815 	stw	r23,32(sp)
    2da4:	dd800715 	stw	r22,28(sp)
    2da8:	dd400615 	stw	r21,24(sp)
    2dac:	dd000515 	stw	r20,20(sp)
    2db0:	dcc00415 	stw	r19,16(sp)
    2db4:	dc400215 	stw	r17,8(sp)
    2db8:	dc000115 	stw	r16,4(sp)
    2dbc:	288002c4 	addi	r2,r5,11
    2dc0:	00c00584 	movi	r3,22
    2dc4:	2025883a 	mov	r18,r4
    2dc8:	18807f2e 	bgeu	r3,r2,2fc8 <_malloc_r+0x238>
    2dcc:	047ffe04 	movi	r17,-8
    2dd0:	1462703a 	and	r17,r2,r17
    2dd4:	8800a316 	blt	r17,zero,3064 <_malloc_r+0x2d4>
    2dd8:	8940a236 	bltu	r17,r5,3064 <_malloc_r+0x2d4>
    2ddc:	000fc2c0 	call	fc2c <__malloc_lock>
    2de0:	00807dc4 	movi	r2,503
    2de4:	1441e92e 	bgeu	r2,r17,358c <_malloc_r+0x7fc>
    2de8:	8804d27a 	srli	r2,r17,9
    2dec:	1000a126 	beq	r2,zero,3074 <_malloc_r+0x2e4>
    2df0:	00c00104 	movi	r3,4
    2df4:	18811e36 	bltu	r3,r2,3270 <_malloc_r+0x4e0>
    2df8:	8804d1ba 	srli	r2,r17,6
    2dfc:	12000e44 	addi	r8,r2,57
    2e00:	11c00e04 	addi	r7,r2,56
    2e04:	4209883a 	add	r4,r8,r8
    2e08:	04c00074 	movhi	r19,1
    2e0c:	2109883a 	add	r4,r4,r4
    2e10:	9cca2a04 	addi	r19,r19,10408
    2e14:	2109883a 	add	r4,r4,r4
    2e18:	9909883a 	add	r4,r19,r4
    2e1c:	24000117 	ldw	r16,4(r4)
    2e20:	213ffe04 	addi	r4,r4,-8
    2e24:	24009726 	beq	r4,r16,3084 <_malloc_r+0x2f4>
    2e28:	80800117 	ldw	r2,4(r16)
    2e2c:	01bfff04 	movi	r6,-4
    2e30:	014003c4 	movi	r5,15
    2e34:	1184703a 	and	r2,r2,r6
    2e38:	1447c83a 	sub	r3,r2,r17
    2e3c:	28c00716 	blt	r5,r3,2e5c <_malloc_r+0xcc>
    2e40:	1800920e 	bge	r3,zero,308c <_malloc_r+0x2fc>
    2e44:	84000317 	ldw	r16,12(r16)
    2e48:	24008e26 	beq	r4,r16,3084 <_malloc_r+0x2f4>
    2e4c:	80800117 	ldw	r2,4(r16)
    2e50:	1184703a 	and	r2,r2,r6
    2e54:	1447c83a 	sub	r3,r2,r17
    2e58:	28fff90e 	bge	r5,r3,2e40 <_malloc_r+0xb0>
    2e5c:	3809883a 	mov	r4,r7
    2e60:	01800074 	movhi	r6,1
    2e64:	9c000417 	ldw	r16,16(r19)
    2e68:	318a2a04 	addi	r6,r6,10408
    2e6c:	32000204 	addi	r8,r6,8
    2e70:	82013426 	beq	r16,r8,3344 <_malloc_r+0x5b4>
    2e74:	80c00117 	ldw	r3,4(r16)
    2e78:	00bfff04 	movi	r2,-4
    2e7c:	188e703a 	and	r7,r3,r2
    2e80:	3c45c83a 	sub	r2,r7,r17
    2e84:	00c003c4 	movi	r3,15
    2e88:	18811f16 	blt	r3,r2,3308 <_malloc_r+0x578>
    2e8c:	32000515 	stw	r8,20(r6)
    2e90:	32000415 	stw	r8,16(r6)
    2e94:	10007f0e 	bge	r2,zero,3094 <_malloc_r+0x304>
    2e98:	00807fc4 	movi	r2,511
    2e9c:	11c0fd36 	bltu	r2,r7,3294 <_malloc_r+0x504>
    2ea0:	3806d0fa 	srli	r3,r7,3
    2ea4:	01c00044 	movi	r7,1
    2ea8:	30800117 	ldw	r2,4(r6)
    2eac:	19400044 	addi	r5,r3,1
    2eb0:	294b883a 	add	r5,r5,r5
    2eb4:	1807d0ba 	srai	r3,r3,2
    2eb8:	294b883a 	add	r5,r5,r5
    2ebc:	294b883a 	add	r5,r5,r5
    2ec0:	298b883a 	add	r5,r5,r6
    2ec4:	38c6983a 	sll	r3,r7,r3
    2ec8:	29c00017 	ldw	r7,0(r5)
    2ecc:	2a7ffe04 	addi	r9,r5,-8
    2ed0:	1886b03a 	or	r3,r3,r2
    2ed4:	82400315 	stw	r9,12(r16)
    2ed8:	81c00215 	stw	r7,8(r16)
    2edc:	30c00115 	stw	r3,4(r6)
    2ee0:	2c000015 	stw	r16,0(r5)
    2ee4:	3c000315 	stw	r16,12(r7)
    2ee8:	2005d0ba 	srai	r2,r4,2
    2eec:	01400044 	movi	r5,1
    2ef0:	288a983a 	sll	r5,r5,r2
    2ef4:	19406f36 	bltu	r3,r5,30b4 <_malloc_r+0x324>
    2ef8:	28c4703a 	and	r2,r5,r3
    2efc:	10000a1e 	bne	r2,zero,2f28 <_malloc_r+0x198>
    2f00:	00bfff04 	movi	r2,-4
    2f04:	294b883a 	add	r5,r5,r5
    2f08:	2088703a 	and	r4,r4,r2
    2f0c:	28c4703a 	and	r2,r5,r3
    2f10:	21000104 	addi	r4,r4,4
    2f14:	1000041e 	bne	r2,zero,2f28 <_malloc_r+0x198>
    2f18:	294b883a 	add	r5,r5,r5
    2f1c:	28c4703a 	and	r2,r5,r3
    2f20:	21000104 	addi	r4,r4,4
    2f24:	103ffc26 	beq	r2,zero,2f18 <_malloc_r+0x188>
    2f28:	02bfff04 	movi	r10,-4
    2f2c:	024003c4 	movi	r9,15
    2f30:	21800044 	addi	r6,r4,1
    2f34:	318d883a 	add	r6,r6,r6
    2f38:	318d883a 	add	r6,r6,r6
    2f3c:	318d883a 	add	r6,r6,r6
    2f40:	998d883a 	add	r6,r19,r6
    2f44:	333ffe04 	addi	r12,r6,-8
    2f48:	2017883a 	mov	r11,r4
    2f4c:	31800104 	addi	r6,r6,4
    2f50:	34000017 	ldw	r16,0(r6)
    2f54:	31fffd04 	addi	r7,r6,-12
    2f58:	81c0041e 	bne	r16,r7,2f6c <_malloc_r+0x1dc>
    2f5c:	0000fb06 	br	334c <_malloc_r+0x5bc>
    2f60:	1801030e 	bge	r3,zero,3370 <_malloc_r+0x5e0>
    2f64:	84000317 	ldw	r16,12(r16)
    2f68:	81c0f826 	beq	r16,r7,334c <_malloc_r+0x5bc>
    2f6c:	80800117 	ldw	r2,4(r16)
    2f70:	1284703a 	and	r2,r2,r10
    2f74:	1447c83a 	sub	r3,r2,r17
    2f78:	48fff90e 	bge	r9,r3,2f60 <_malloc_r+0x1d0>
    2f7c:	80800317 	ldw	r2,12(r16)
    2f80:	81000217 	ldw	r4,8(r16)
    2f84:	89400054 	ori	r5,r17,1
    2f88:	81400115 	stw	r5,4(r16)
    2f8c:	20800315 	stw	r2,12(r4)
    2f90:	11000215 	stw	r4,8(r2)
    2f94:	8463883a 	add	r17,r16,r17
    2f98:	9c400515 	stw	r17,20(r19)
    2f9c:	9c400415 	stw	r17,16(r19)
    2fa0:	18800054 	ori	r2,r3,1
    2fa4:	88800115 	stw	r2,4(r17)
    2fa8:	8a000315 	stw	r8,12(r17)
    2fac:	8a000215 	stw	r8,8(r17)
    2fb0:	88e3883a 	add	r17,r17,r3
    2fb4:	88c00015 	stw	r3,0(r17)
    2fb8:	9009883a 	mov	r4,r18
    2fbc:	000fc500 	call	fc50 <__malloc_unlock>
    2fc0:	80800204 	addi	r2,r16,8
    2fc4:	00001b06 	br	3034 <_malloc_r+0x2a4>
    2fc8:	04400404 	movi	r17,16
    2fcc:	89402536 	bltu	r17,r5,3064 <_malloc_r+0x2d4>
    2fd0:	000fc2c0 	call	fc2c <__malloc_lock>
    2fd4:	00800184 	movi	r2,6
    2fd8:	01000084 	movi	r4,2
    2fdc:	04c00074 	movhi	r19,1
    2fe0:	1085883a 	add	r2,r2,r2
    2fe4:	9cca2a04 	addi	r19,r19,10408
    2fe8:	1085883a 	add	r2,r2,r2
    2fec:	9885883a 	add	r2,r19,r2
    2ff0:	14000117 	ldw	r16,4(r2)
    2ff4:	10fffe04 	addi	r3,r2,-8
    2ff8:	80c0d926 	beq	r16,r3,3360 <_malloc_r+0x5d0>
    2ffc:	80c00117 	ldw	r3,4(r16)
    3000:	81000317 	ldw	r4,12(r16)
    3004:	00bfff04 	movi	r2,-4
    3008:	1884703a 	and	r2,r3,r2
    300c:	81400217 	ldw	r5,8(r16)
    3010:	8085883a 	add	r2,r16,r2
    3014:	10c00117 	ldw	r3,4(r2)
    3018:	29000315 	stw	r4,12(r5)
    301c:	21400215 	stw	r5,8(r4)
    3020:	18c00054 	ori	r3,r3,1
    3024:	10c00115 	stw	r3,4(r2)
    3028:	9009883a 	mov	r4,r18
    302c:	000fc500 	call	fc50 <__malloc_unlock>
    3030:	80800204 	addi	r2,r16,8
    3034:	dfc00a17 	ldw	ra,40(sp)
    3038:	df000917 	ldw	fp,36(sp)
    303c:	ddc00817 	ldw	r23,32(sp)
    3040:	dd800717 	ldw	r22,28(sp)
    3044:	dd400617 	ldw	r21,24(sp)
    3048:	dd000517 	ldw	r20,20(sp)
    304c:	dcc00417 	ldw	r19,16(sp)
    3050:	dc800317 	ldw	r18,12(sp)
    3054:	dc400217 	ldw	r17,8(sp)
    3058:	dc000117 	ldw	r16,4(sp)
    305c:	dec00b04 	addi	sp,sp,44
    3060:	f800283a 	ret
    3064:	00800304 	movi	r2,12
    3068:	90800015 	stw	r2,0(r18)
    306c:	0005883a 	mov	r2,zero
    3070:	003ff006 	br	3034 <_malloc_r+0x2a4>
    3074:	01002004 	movi	r4,128
    3078:	02001004 	movi	r8,64
    307c:	01c00fc4 	movi	r7,63
    3080:	003f6106 	br	2e08 <_malloc_r+0x78>
    3084:	4009883a 	mov	r4,r8
    3088:	003f7506 	br	2e60 <_malloc_r+0xd0>
    308c:	81000317 	ldw	r4,12(r16)
    3090:	003fde06 	br	300c <_malloc_r+0x27c>
    3094:	81c5883a 	add	r2,r16,r7
    3098:	11400117 	ldw	r5,4(r2)
    309c:	9009883a 	mov	r4,r18
    30a0:	29400054 	ori	r5,r5,1
    30a4:	11400115 	stw	r5,4(r2)
    30a8:	000fc500 	call	fc50 <__malloc_unlock>
    30ac:	80800204 	addi	r2,r16,8
    30b0:	003fe006 	br	3034 <_malloc_r+0x2a4>
    30b4:	9c000217 	ldw	r16,8(r19)
    30b8:	00bfff04 	movi	r2,-4
    30bc:	85800117 	ldw	r22,4(r16)
    30c0:	b0ac703a 	and	r22,r22,r2
    30c4:	b4400336 	bltu	r22,r17,30d4 <_malloc_r+0x344>
    30c8:	b445c83a 	sub	r2,r22,r17
    30cc:	00c003c4 	movi	r3,15
    30d0:	18805d16 	blt	r3,r2,3248 <_malloc_r+0x4b8>
    30d4:	05c00074 	movhi	r23,1
    30d8:	00800074 	movhi	r2,1
    30dc:	1097ac04 	addi	r2,r2,24240
    30e0:	bdd0d504 	addi	r23,r23,17236
    30e4:	15400017 	ldw	r21,0(r2)
    30e8:	b8c00017 	ldw	r3,0(r23)
    30ec:	00bfffc4 	movi	r2,-1
    30f0:	858d883a 	add	r6,r16,r22
    30f4:	8d6b883a 	add	r21,r17,r21
    30f8:	1880ea26 	beq	r3,r2,34a4 <_malloc_r+0x714>
    30fc:	ad4403c4 	addi	r21,r21,4111
    3100:	00bc0004 	movi	r2,-4096
    3104:	a8aa703a 	and	r21,r21,r2
    3108:	a80b883a 	mov	r5,r21
    310c:	9009883a 	mov	r4,r18
    3110:	d9800015 	stw	r6,0(sp)
    3114:	00036dc0 	call	36dc <_sbrk_r>
    3118:	1029883a 	mov	r20,r2
    311c:	00bfffc4 	movi	r2,-1
    3120:	d9800017 	ldw	r6,0(sp)
    3124:	a080e826 	beq	r20,r2,34c8 <_malloc_r+0x738>
    3128:	a180a636 	bltu	r20,r6,33c4 <_malloc_r+0x634>
    312c:	07000074 	movhi	fp,1
    3130:	e717ba04 	addi	fp,fp,24296
    3134:	e0800017 	ldw	r2,0(fp)
    3138:	a887883a 	add	r3,r21,r2
    313c:	e0c00015 	stw	r3,0(fp)
    3140:	3500e626 	beq	r6,r20,34dc <_malloc_r+0x74c>
    3144:	b9000017 	ldw	r4,0(r23)
    3148:	00bfffc4 	movi	r2,-1
    314c:	2080ee26 	beq	r4,r2,3508 <_malloc_r+0x778>
    3150:	a185c83a 	sub	r2,r20,r6
    3154:	10c5883a 	add	r2,r2,r3
    3158:	e0800015 	stw	r2,0(fp)
    315c:	a0c001cc 	andi	r3,r20,7
    3160:	1800bc26 	beq	r3,zero,3454 <_malloc_r+0x6c4>
    3164:	a0e9c83a 	sub	r20,r20,r3
    3168:	00840204 	movi	r2,4104
    316c:	a5000204 	addi	r20,r20,8
    3170:	10c7c83a 	sub	r3,r2,r3
    3174:	a545883a 	add	r2,r20,r21
    3178:	1083ffcc 	andi	r2,r2,4095
    317c:	18abc83a 	sub	r21,r3,r2
    3180:	a80b883a 	mov	r5,r21
    3184:	9009883a 	mov	r4,r18
    3188:	00036dc0 	call	36dc <_sbrk_r>
    318c:	00ffffc4 	movi	r3,-1
    3190:	10c0e126 	beq	r2,r3,3518 <_malloc_r+0x788>
    3194:	1505c83a 	sub	r2,r2,r20
    3198:	1545883a 	add	r2,r2,r21
    319c:	10800054 	ori	r2,r2,1
    31a0:	e0c00017 	ldw	r3,0(fp)
    31a4:	9d000215 	stw	r20,8(r19)
    31a8:	a0800115 	stw	r2,4(r20)
    31ac:	a8c7883a 	add	r3,r21,r3
    31b0:	e0c00015 	stw	r3,0(fp)
    31b4:	84c00e26 	beq	r16,r19,31f0 <_malloc_r+0x460>
    31b8:	018003c4 	movi	r6,15
    31bc:	3580a72e 	bgeu	r6,r22,345c <_malloc_r+0x6cc>
    31c0:	81400117 	ldw	r5,4(r16)
    31c4:	013ffe04 	movi	r4,-8
    31c8:	b0bffd04 	addi	r2,r22,-12
    31cc:	1104703a 	and	r2,r2,r4
    31d0:	2900004c 	andi	r4,r5,1
    31d4:	2088b03a 	or	r4,r4,r2
    31d8:	81000115 	stw	r4,4(r16)
    31dc:	01400144 	movi	r5,5
    31e0:	8089883a 	add	r4,r16,r2
    31e4:	21400115 	stw	r5,4(r4)
    31e8:	21400215 	stw	r5,8(r4)
    31ec:	3080cd36 	bltu	r6,r2,3524 <_malloc_r+0x794>
    31f0:	00800074 	movhi	r2,1
    31f4:	1097ab04 	addi	r2,r2,24236
    31f8:	11000017 	ldw	r4,0(r2)
    31fc:	20c0012e 	bgeu	r4,r3,3204 <_malloc_r+0x474>
    3200:	10c00015 	stw	r3,0(r2)
    3204:	00800074 	movhi	r2,1
    3208:	1097aa04 	addi	r2,r2,24232
    320c:	11000017 	ldw	r4,0(r2)
    3210:	9c000217 	ldw	r16,8(r19)
    3214:	20c0012e 	bgeu	r4,r3,321c <_malloc_r+0x48c>
    3218:	10c00015 	stw	r3,0(r2)
    321c:	80c00117 	ldw	r3,4(r16)
    3220:	00bfff04 	movi	r2,-4
    3224:	1886703a 	and	r3,r3,r2
    3228:	1c45c83a 	sub	r2,r3,r17
    322c:	1c400236 	bltu	r3,r17,3238 <_malloc_r+0x4a8>
    3230:	00c003c4 	movi	r3,15
    3234:	18800416 	blt	r3,r2,3248 <_malloc_r+0x4b8>
    3238:	9009883a 	mov	r4,r18
    323c:	000fc500 	call	fc50 <__malloc_unlock>
    3240:	0005883a 	mov	r2,zero
    3244:	003f7b06 	br	3034 <_malloc_r+0x2a4>
    3248:	88c00054 	ori	r3,r17,1
    324c:	80c00115 	stw	r3,4(r16)
    3250:	8463883a 	add	r17,r16,r17
    3254:	10800054 	ori	r2,r2,1
    3258:	9c400215 	stw	r17,8(r19)
    325c:	88800115 	stw	r2,4(r17)
    3260:	9009883a 	mov	r4,r18
    3264:	000fc500 	call	fc50 <__malloc_unlock>
    3268:	80800204 	addi	r2,r16,8
    326c:	003f7106 	br	3034 <_malloc_r+0x2a4>
    3270:	00c00504 	movi	r3,20
    3274:	18804a2e 	bgeu	r3,r2,33a0 <_malloc_r+0x610>
    3278:	00c01504 	movi	r3,84
    327c:	18806e36 	bltu	r3,r2,3438 <_malloc_r+0x6a8>
    3280:	8804d33a 	srli	r2,r17,12
    3284:	12001bc4 	addi	r8,r2,111
    3288:	11c01b84 	addi	r7,r2,110
    328c:	4209883a 	add	r4,r8,r8
    3290:	003edd06 	br	2e08 <_malloc_r+0x78>
    3294:	3804d27a 	srli	r2,r7,9
    3298:	00c00104 	movi	r3,4
    329c:	1880442e 	bgeu	r3,r2,33b0 <_malloc_r+0x620>
    32a0:	00c00504 	movi	r3,20
    32a4:	18808136 	bltu	r3,r2,34ac <_malloc_r+0x71c>
    32a8:	11401704 	addi	r5,r2,92
    32ac:	10c016c4 	addi	r3,r2,91
    32b0:	294b883a 	add	r5,r5,r5
    32b4:	294b883a 	add	r5,r5,r5
    32b8:	294b883a 	add	r5,r5,r5
    32bc:	994b883a 	add	r5,r19,r5
    32c0:	28800017 	ldw	r2,0(r5)
    32c4:	01800074 	movhi	r6,1
    32c8:	297ffe04 	addi	r5,r5,-8
    32cc:	318a2a04 	addi	r6,r6,10408
    32d0:	28806526 	beq	r5,r2,3468 <_malloc_r+0x6d8>
    32d4:	01bfff04 	movi	r6,-4
    32d8:	10c00117 	ldw	r3,4(r2)
    32dc:	1986703a 	and	r3,r3,r6
    32e0:	38c0022e 	bgeu	r7,r3,32ec <_malloc_r+0x55c>
    32e4:	10800217 	ldw	r2,8(r2)
    32e8:	28bffb1e 	bne	r5,r2,32d8 <_malloc_r+0x548>
    32ec:	11400317 	ldw	r5,12(r2)
    32f0:	98c00117 	ldw	r3,4(r19)
    32f4:	81400315 	stw	r5,12(r16)
    32f8:	80800215 	stw	r2,8(r16)
    32fc:	2c000215 	stw	r16,8(r5)
    3300:	14000315 	stw	r16,12(r2)
    3304:	003ef806 	br	2ee8 <_malloc_r+0x158>
    3308:	88c00054 	ori	r3,r17,1
    330c:	80c00115 	stw	r3,4(r16)
    3310:	8463883a 	add	r17,r16,r17
    3314:	34400515 	stw	r17,20(r6)
    3318:	34400415 	stw	r17,16(r6)
    331c:	10c00054 	ori	r3,r2,1
    3320:	8a000315 	stw	r8,12(r17)
    3324:	8a000215 	stw	r8,8(r17)
    3328:	88c00115 	stw	r3,4(r17)
    332c:	88a3883a 	add	r17,r17,r2
    3330:	88800015 	stw	r2,0(r17)
    3334:	9009883a 	mov	r4,r18
    3338:	000fc500 	call	fc50 <__malloc_unlock>
    333c:	80800204 	addi	r2,r16,8
    3340:	003f3c06 	br	3034 <_malloc_r+0x2a4>
    3344:	30c00117 	ldw	r3,4(r6)
    3348:	003ee706 	br	2ee8 <_malloc_r+0x158>
    334c:	5ac00044 	addi	r11,r11,1
    3350:	588000cc 	andi	r2,r11,3
    3354:	31800204 	addi	r6,r6,8
    3358:	103efd1e 	bne	r2,zero,2f50 <_malloc_r+0x1c0>
    335c:	00002406 	br	33f0 <_malloc_r+0x660>
    3360:	14000317 	ldw	r16,12(r2)
    3364:	143f251e 	bne	r2,r16,2ffc <_malloc_r+0x26c>
    3368:	21000084 	addi	r4,r4,2
    336c:	003ebc06 	br	2e60 <_malloc_r+0xd0>
    3370:	8085883a 	add	r2,r16,r2
    3374:	10c00117 	ldw	r3,4(r2)
    3378:	81000317 	ldw	r4,12(r16)
    337c:	81400217 	ldw	r5,8(r16)
    3380:	18c00054 	ori	r3,r3,1
    3384:	10c00115 	stw	r3,4(r2)
    3388:	29000315 	stw	r4,12(r5)
    338c:	21400215 	stw	r5,8(r4)
    3390:	9009883a 	mov	r4,r18
    3394:	000fc500 	call	fc50 <__malloc_unlock>
    3398:	80800204 	addi	r2,r16,8
    339c:	003f2506 	br	3034 <_malloc_r+0x2a4>
    33a0:	12001704 	addi	r8,r2,92
    33a4:	11c016c4 	addi	r7,r2,91
    33a8:	4209883a 	add	r4,r8,r8
    33ac:	003e9606 	br	2e08 <_malloc_r+0x78>
    33b0:	3804d1ba 	srli	r2,r7,6
    33b4:	11400e44 	addi	r5,r2,57
    33b8:	10c00e04 	addi	r3,r2,56
    33bc:	294b883a 	add	r5,r5,r5
    33c0:	003fbc06 	br	32b4 <_malloc_r+0x524>
    33c4:	84ff5926 	beq	r16,r19,312c <_malloc_r+0x39c>
    33c8:	00800074 	movhi	r2,1
    33cc:	108a2a04 	addi	r2,r2,10408
    33d0:	14000217 	ldw	r16,8(r2)
    33d4:	00bfff04 	movi	r2,-4
    33d8:	80c00117 	ldw	r3,4(r16)
    33dc:	1886703a 	and	r3,r3,r2
    33e0:	003f9106 	br	3228 <_malloc_r+0x498>
    33e4:	60800217 	ldw	r2,8(r12)
    33e8:	213fffc4 	addi	r4,r4,-1
    33ec:	1300651e 	bne	r2,r12,3584 <_malloc_r+0x7f4>
    33f0:	208000cc 	andi	r2,r4,3
    33f4:	633ffe04 	addi	r12,r12,-8
    33f8:	103ffa1e 	bne	r2,zero,33e4 <_malloc_r+0x654>
    33fc:	98800117 	ldw	r2,4(r19)
    3400:	0146303a 	nor	r3,zero,r5
    3404:	1884703a 	and	r2,r3,r2
    3408:	98800115 	stw	r2,4(r19)
    340c:	294b883a 	add	r5,r5,r5
    3410:	117f2836 	bltu	r2,r5,30b4 <_malloc_r+0x324>
    3414:	283f2726 	beq	r5,zero,30b4 <_malloc_r+0x324>
    3418:	2886703a 	and	r3,r5,r2
    341c:	5809883a 	mov	r4,r11
    3420:	183ec31e 	bne	r3,zero,2f30 <_malloc_r+0x1a0>
    3424:	294b883a 	add	r5,r5,r5
    3428:	2886703a 	and	r3,r5,r2
    342c:	21000104 	addi	r4,r4,4
    3430:	183ffc26 	beq	r3,zero,3424 <_malloc_r+0x694>
    3434:	003ebe06 	br	2f30 <_malloc_r+0x1a0>
    3438:	00c05504 	movi	r3,340
    343c:	18801236 	bltu	r3,r2,3488 <_malloc_r+0x6f8>
    3440:	8804d3fa 	srli	r2,r17,15
    3444:	12001e04 	addi	r8,r2,120
    3448:	11c01dc4 	addi	r7,r2,119
    344c:	4209883a 	add	r4,r8,r8
    3450:	003e6d06 	br	2e08 <_malloc_r+0x78>
    3454:	00c40004 	movi	r3,4096
    3458:	003f4606 	br	3174 <_malloc_r+0x3e4>
    345c:	00800044 	movi	r2,1
    3460:	a0800115 	stw	r2,4(r20)
    3464:	003f7406 	br	3238 <_malloc_r+0x4a8>
    3468:	1805d0ba 	srai	r2,r3,2
    346c:	01c00044 	movi	r7,1
    3470:	30c00117 	ldw	r3,4(r6)
    3474:	388e983a 	sll	r7,r7,r2
    3478:	2805883a 	mov	r2,r5
    347c:	38c6b03a 	or	r3,r7,r3
    3480:	30c00115 	stw	r3,4(r6)
    3484:	003f9b06 	br	32f4 <_malloc_r+0x564>
    3488:	00c15504 	movi	r3,1364
    348c:	18801a36 	bltu	r3,r2,34f8 <_malloc_r+0x768>
    3490:	8804d4ba 	srli	r2,r17,18
    3494:	12001f44 	addi	r8,r2,125
    3498:	11c01f04 	addi	r7,r2,124
    349c:	4209883a 	add	r4,r8,r8
    34a0:	003e5906 	br	2e08 <_malloc_r+0x78>
    34a4:	ad400404 	addi	r21,r21,16
    34a8:	003f1706 	br	3108 <_malloc_r+0x378>
    34ac:	00c01504 	movi	r3,84
    34b0:	18802336 	bltu	r3,r2,3540 <_malloc_r+0x7b0>
    34b4:	3804d33a 	srli	r2,r7,12
    34b8:	11401bc4 	addi	r5,r2,111
    34bc:	10c01b84 	addi	r3,r2,110
    34c0:	294b883a 	add	r5,r5,r5
    34c4:	003f7b06 	br	32b4 <_malloc_r+0x524>
    34c8:	9c000217 	ldw	r16,8(r19)
    34cc:	00bfff04 	movi	r2,-4
    34d0:	80c00117 	ldw	r3,4(r16)
    34d4:	1886703a 	and	r3,r3,r2
    34d8:	003f5306 	br	3228 <_malloc_r+0x498>
    34dc:	3083ffcc 	andi	r2,r6,4095
    34e0:	103f181e 	bne	r2,zero,3144 <_malloc_r+0x3b4>
    34e4:	99000217 	ldw	r4,8(r19)
    34e8:	b545883a 	add	r2,r22,r21
    34ec:	10800054 	ori	r2,r2,1
    34f0:	20800115 	stw	r2,4(r4)
    34f4:	003f3e06 	br	31f0 <_malloc_r+0x460>
    34f8:	01003f84 	movi	r4,254
    34fc:	02001fc4 	movi	r8,127
    3500:	01c01f84 	movi	r7,126
    3504:	003e4006 	br	2e08 <_malloc_r+0x78>
    3508:	00800074 	movhi	r2,1
    350c:	1090d504 	addi	r2,r2,17236
    3510:	15000015 	stw	r20,0(r2)
    3514:	003f1106 	br	315c <_malloc_r+0x3cc>
    3518:	00800044 	movi	r2,1
    351c:	002b883a 	mov	r21,zero
    3520:	003f1f06 	br	31a0 <_malloc_r+0x410>
    3524:	81400204 	addi	r5,r16,8
    3528:	9009883a 	mov	r4,r18
    352c:	0007be00 	call	7be0 <_free_r>
    3530:	00800074 	movhi	r2,1
    3534:	1097ba04 	addi	r2,r2,24296
    3538:	10c00017 	ldw	r3,0(r2)
    353c:	003f2c06 	br	31f0 <_malloc_r+0x460>
    3540:	00c05504 	movi	r3,340
    3544:	18800536 	bltu	r3,r2,355c <_malloc_r+0x7cc>
    3548:	3804d3fa 	srli	r2,r7,15
    354c:	11401e04 	addi	r5,r2,120
    3550:	10c01dc4 	addi	r3,r2,119
    3554:	294b883a 	add	r5,r5,r5
    3558:	003f5606 	br	32b4 <_malloc_r+0x524>
    355c:	00c15504 	movi	r3,1364
    3560:	18800536 	bltu	r3,r2,3578 <_malloc_r+0x7e8>
    3564:	3804d4ba 	srli	r2,r7,18
    3568:	11401f44 	addi	r5,r2,125
    356c:	10c01f04 	addi	r3,r2,124
    3570:	294b883a 	add	r5,r5,r5
    3574:	003f4f06 	br	32b4 <_malloc_r+0x524>
    3578:	01403f84 	movi	r5,254
    357c:	00c01f84 	movi	r3,126
    3580:	003f4c06 	br	32b4 <_malloc_r+0x524>
    3584:	98800117 	ldw	r2,4(r19)
    3588:	003fa006 	br	340c <_malloc_r+0x67c>
    358c:	8808d0fa 	srli	r4,r17,3
    3590:	20800044 	addi	r2,r4,1
    3594:	1085883a 	add	r2,r2,r2
    3598:	003e9006 	br	2fdc <_malloc_r+0x24c>

0000359c <_printf_r>:
    359c:	defffd04 	addi	sp,sp,-12
    35a0:	2805883a 	mov	r2,r5
    35a4:	dfc00015 	stw	ra,0(sp)
    35a8:	d9800115 	stw	r6,4(sp)
    35ac:	d9c00215 	stw	r7,8(sp)
    35b0:	21400217 	ldw	r5,8(r4)
    35b4:	d9c00104 	addi	r7,sp,4
    35b8:	100d883a 	mov	r6,r2
    35bc:	00037c80 	call	37c8 <___vfprintf_internal_r>
    35c0:	dfc00017 	ldw	ra,0(sp)
    35c4:	dec00304 	addi	sp,sp,12
    35c8:	f800283a 	ret

000035cc <printf>:
    35cc:	defffc04 	addi	sp,sp,-16
    35d0:	dfc00015 	stw	ra,0(sp)
    35d4:	d9400115 	stw	r5,4(sp)
    35d8:	d9800215 	stw	r6,8(sp)
    35dc:	d9c00315 	stw	r7,12(sp)
    35e0:	00800074 	movhi	r2,1
    35e4:	1090d804 	addi	r2,r2,17248
    35e8:	10800017 	ldw	r2,0(r2)
    35ec:	200b883a 	mov	r5,r4
    35f0:	d9800104 	addi	r6,sp,4
    35f4:	11000217 	ldw	r4,8(r2)
    35f8:	00059c00 	call	59c0 <__vfprintf_internal>
    35fc:	dfc00017 	ldw	ra,0(sp)
    3600:	dec00404 	addi	sp,sp,16
    3604:	f800283a 	ret

00003608 <_puts_r>:
    3608:	defff604 	addi	sp,sp,-40
    360c:	dc000715 	stw	r16,28(sp)
    3610:	2021883a 	mov	r16,r4
    3614:	2809883a 	mov	r4,r5
    3618:	dc400815 	stw	r17,32(sp)
    361c:	dfc00915 	stw	ra,36(sp)
    3620:	2823883a 	mov	r17,r5
    3624:	00037300 	call	3730 <strlen>
    3628:	10c00044 	addi	r3,r2,1
    362c:	d8800115 	stw	r2,4(sp)
    3630:	00800074 	movhi	r2,1
    3634:	10896c04 	addi	r2,r2,9648
    3638:	d8800215 	stw	r2,8(sp)
    363c:	00800044 	movi	r2,1
    3640:	d8800315 	stw	r2,12(sp)
    3644:	00800084 	movi	r2,2
    3648:	dc400015 	stw	r17,0(sp)
    364c:	d8c00615 	stw	r3,24(sp)
    3650:	dec00415 	stw	sp,16(sp)
    3654:	d8800515 	stw	r2,20(sp)
    3658:	80000226 	beq	r16,zero,3664 <_puts_r+0x5c>
    365c:	80800e17 	ldw	r2,56(r16)
    3660:	10001426 	beq	r2,zero,36b4 <_puts_r+0xac>
    3664:	81400217 	ldw	r5,8(r16)
    3668:	2880030b 	ldhu	r2,12(r5)
    366c:	10c8000c 	andi	r3,r2,8192
    3670:	1800061e 	bne	r3,zero,368c <_puts_r+0x84>
    3674:	29001917 	ldw	r4,100(r5)
    3678:	00f7ffc4 	movi	r3,-8193
    367c:	10880014 	ori	r2,r2,8192
    3680:	20c6703a 	and	r3,r4,r3
    3684:	2880030d 	sth	r2,12(r5)
    3688:	28c01915 	stw	r3,100(r5)
    368c:	d9800404 	addi	r6,sp,16
    3690:	8009883a 	mov	r4,r16
    3694:	0007ef00 	call	7ef0 <__sfvwrite_r>
    3698:	1000091e 	bne	r2,zero,36c0 <_puts_r+0xb8>
    369c:	00800284 	movi	r2,10
    36a0:	dfc00917 	ldw	ra,36(sp)
    36a4:	dc400817 	ldw	r17,32(sp)
    36a8:	dc000717 	ldw	r16,28(sp)
    36ac:	dec00a04 	addi	sp,sp,40
    36b0:	f800283a 	ret
    36b4:	8009883a 	mov	r4,r16
    36b8:	0007a6c0 	call	7a6c <__sinit>
    36bc:	003fe906 	br	3664 <_puts_r+0x5c>
    36c0:	00bfffc4 	movi	r2,-1
    36c4:	003ff606 	br	36a0 <_puts_r+0x98>

000036c8 <puts>:
    36c8:	00800074 	movhi	r2,1
    36cc:	1090d804 	addi	r2,r2,17248
    36d0:	200b883a 	mov	r5,r4
    36d4:	11000017 	ldw	r4,0(r2)
    36d8:	00036081 	jmpi	3608 <_puts_r>

000036dc <_sbrk_r>:
    36dc:	defffd04 	addi	sp,sp,-12
    36e0:	dc000015 	stw	r16,0(sp)
    36e4:	04000074 	movhi	r16,1
    36e8:	dc400115 	stw	r17,4(sp)
    36ec:	8417ad04 	addi	r16,r16,24244
    36f0:	2023883a 	mov	r17,r4
    36f4:	2809883a 	mov	r4,r5
    36f8:	dfc00215 	stw	ra,8(sp)
    36fc:	80000015 	stw	zero,0(r16)
    3700:	000fe100 	call	fe10 <sbrk>
    3704:	00ffffc4 	movi	r3,-1
    3708:	10c00526 	beq	r2,r3,3720 <_sbrk_r+0x44>
    370c:	dfc00217 	ldw	ra,8(sp)
    3710:	dc400117 	ldw	r17,4(sp)
    3714:	dc000017 	ldw	r16,0(sp)
    3718:	dec00304 	addi	sp,sp,12
    371c:	f800283a 	ret
    3720:	80c00017 	ldw	r3,0(r16)
    3724:	183ff926 	beq	r3,zero,370c <_sbrk_r+0x30>
    3728:	88c00015 	stw	r3,0(r17)
    372c:	003ff706 	br	370c <_sbrk_r+0x30>

00003730 <strlen>:
    3730:	208000cc 	andi	r2,r4,3
    3734:	10002026 	beq	r2,zero,37b8 <strlen+0x88>
    3738:	20800007 	ldb	r2,0(r4)
    373c:	10002026 	beq	r2,zero,37c0 <strlen+0x90>
    3740:	2005883a 	mov	r2,r4
    3744:	00000206 	br	3750 <strlen+0x20>
    3748:	10c00007 	ldb	r3,0(r2)
    374c:	18001826 	beq	r3,zero,37b0 <strlen+0x80>
    3750:	10800044 	addi	r2,r2,1
    3754:	10c000cc 	andi	r3,r2,3
    3758:	183ffb1e 	bne	r3,zero,3748 <strlen+0x18>
    375c:	10c00017 	ldw	r3,0(r2)
    3760:	01ffbff4 	movhi	r7,65279
    3764:	39ffbfc4 	addi	r7,r7,-257
    3768:	00ca303a 	nor	r5,zero,r3
    376c:	01a02074 	movhi	r6,32897
    3770:	19c7883a 	add	r3,r3,r7
    3774:	31a02004 	addi	r6,r6,-32640
    3778:	1946703a 	and	r3,r3,r5
    377c:	1986703a 	and	r3,r3,r6
    3780:	1800091e 	bne	r3,zero,37a8 <strlen+0x78>
    3784:	10800104 	addi	r2,r2,4
    3788:	10c00017 	ldw	r3,0(r2)
    378c:	19cb883a 	add	r5,r3,r7
    3790:	00c6303a 	nor	r3,zero,r3
    3794:	28c6703a 	and	r3,r5,r3
    3798:	1986703a 	and	r3,r3,r6
    379c:	183ff926 	beq	r3,zero,3784 <strlen+0x54>
    37a0:	00000106 	br	37a8 <strlen+0x78>
    37a4:	10800044 	addi	r2,r2,1
    37a8:	10c00007 	ldb	r3,0(r2)
    37ac:	183ffd1e 	bne	r3,zero,37a4 <strlen+0x74>
    37b0:	1105c83a 	sub	r2,r2,r4
    37b4:	f800283a 	ret
    37b8:	2005883a 	mov	r2,r4
    37bc:	003fe706 	br	375c <strlen+0x2c>
    37c0:	0005883a 	mov	r2,zero
    37c4:	f800283a 	ret

000037c8 <___vfprintf_internal_r>:
    37c8:	deffb804 	addi	sp,sp,-288
    37cc:	dfc04715 	stw	ra,284(sp)
    37d0:	ddc04515 	stw	r23,276(sp)
    37d4:	dd404315 	stw	r21,268(sp)
    37d8:	d9002c15 	stw	r4,176(sp)
    37dc:	282f883a 	mov	r23,r5
    37e0:	302b883a 	mov	r21,r6
    37e4:	d9c02d15 	stw	r7,180(sp)
    37e8:	df004615 	stw	fp,280(sp)
    37ec:	dd804415 	stw	r22,272(sp)
    37f0:	dd004215 	stw	r20,264(sp)
    37f4:	dcc04115 	stw	r19,260(sp)
    37f8:	dc804015 	stw	r18,256(sp)
    37fc:	dc403f15 	stw	r17,252(sp)
    3800:	dc003e15 	stw	r16,248(sp)
    3804:	00085e00 	call	85e0 <_localeconv_r>
    3808:	10800017 	ldw	r2,0(r2)
    380c:	1009883a 	mov	r4,r2
    3810:	d8803415 	stw	r2,208(sp)
    3814:	00037300 	call	3730 <strlen>
    3818:	d8803715 	stw	r2,220(sp)
    381c:	d8802c17 	ldw	r2,176(sp)
    3820:	10000226 	beq	r2,zero,382c <___vfprintf_internal_r+0x64>
    3824:	10800e17 	ldw	r2,56(r2)
    3828:	1000f926 	beq	r2,zero,3c10 <___vfprintf_internal_r+0x448>
    382c:	b880030b 	ldhu	r2,12(r23)
    3830:	10c8000c 	andi	r3,r2,8192
    3834:	1800061e 	bne	r3,zero,3850 <___vfprintf_internal_r+0x88>
    3838:	b9001917 	ldw	r4,100(r23)
    383c:	00f7ffc4 	movi	r3,-8193
    3840:	10880014 	ori	r2,r2,8192
    3844:	20c6703a 	and	r3,r4,r3
    3848:	b880030d 	sth	r2,12(r23)
    384c:	b8c01915 	stw	r3,100(r23)
    3850:	10c0020c 	andi	r3,r2,8
    3854:	1800c126 	beq	r3,zero,3b5c <___vfprintf_internal_r+0x394>
    3858:	b8c00417 	ldw	r3,16(r23)
    385c:	1800bf26 	beq	r3,zero,3b5c <___vfprintf_internal_r+0x394>
    3860:	1080068c 	andi	r2,r2,26
    3864:	00c00284 	movi	r3,10
    3868:	10c0c426 	beq	r2,r3,3b7c <___vfprintf_internal_r+0x3b4>
    386c:	d8c00404 	addi	r3,sp,16
    3870:	05000074 	movhi	r20,1
    3874:	d9001e04 	addi	r4,sp,120
    3878:	a5097d84 	addi	r20,r20,9718
    387c:	d8c01e15 	stw	r3,120(sp)
    3880:	d8002015 	stw	zero,128(sp)
    3884:	d8001f15 	stw	zero,124(sp)
    3888:	d8003315 	stw	zero,204(sp)
    388c:	d8003615 	stw	zero,216(sp)
    3890:	d8003815 	stw	zero,224(sp)
    3894:	1811883a 	mov	r8,r3
    3898:	d8003915 	stw	zero,228(sp)
    389c:	d8003a15 	stw	zero,232(sp)
    38a0:	d8002f15 	stw	zero,188(sp)
    38a4:	d9002815 	stw	r4,160(sp)
    38a8:	a8800007 	ldb	r2,0(r21)
    38ac:	10027b26 	beq	r2,zero,429c <___vfprintf_internal_r+0xad4>
    38b0:	00c00944 	movi	r3,37
    38b4:	a821883a 	mov	r16,r21
    38b8:	10c0021e 	bne	r2,r3,38c4 <___vfprintf_internal_r+0xfc>
    38bc:	00001406 	br	3910 <___vfprintf_internal_r+0x148>
    38c0:	10c00326 	beq	r2,r3,38d0 <___vfprintf_internal_r+0x108>
    38c4:	84000044 	addi	r16,r16,1
    38c8:	80800007 	ldb	r2,0(r16)
    38cc:	103ffc1e 	bne	r2,zero,38c0 <___vfprintf_internal_r+0xf8>
    38d0:	8563c83a 	sub	r17,r16,r21
    38d4:	88000e26 	beq	r17,zero,3910 <___vfprintf_internal_r+0x148>
    38d8:	d8c02017 	ldw	r3,128(sp)
    38dc:	d8801f17 	ldw	r2,124(sp)
    38e0:	45400015 	stw	r21,0(r8)
    38e4:	1c47883a 	add	r3,r3,r17
    38e8:	10800044 	addi	r2,r2,1
    38ec:	d8c02015 	stw	r3,128(sp)
    38f0:	44400115 	stw	r17,4(r8)
    38f4:	d8801f15 	stw	r2,124(sp)
    38f8:	00c001c4 	movi	r3,7
    38fc:	1880a716 	blt	r3,r2,3b9c <___vfprintf_internal_r+0x3d4>
    3900:	42000204 	addi	r8,r8,8
    3904:	d9402f17 	ldw	r5,188(sp)
    3908:	2c4b883a 	add	r5,r5,r17
    390c:	d9402f15 	stw	r5,188(sp)
    3910:	80800007 	ldb	r2,0(r16)
    3914:	1000a826 	beq	r2,zero,3bb8 <___vfprintf_internal_r+0x3f0>
    3918:	84400047 	ldb	r17,1(r16)
    391c:	00bfffc4 	movi	r2,-1
    3920:	85400044 	addi	r21,r16,1
    3924:	d8002785 	stb	zero,158(sp)
    3928:	0007883a 	mov	r3,zero
    392c:	000f883a 	mov	r7,zero
    3930:	d8802915 	stw	r2,164(sp)
    3934:	d8003115 	stw	zero,196(sp)
    3938:	0025883a 	mov	r18,zero
    393c:	01401604 	movi	r5,88
    3940:	01800244 	movi	r6,9
    3944:	02800a84 	movi	r10,42
    3948:	02401b04 	movi	r9,108
    394c:	ad400044 	addi	r21,r21,1
    3950:	88bff804 	addi	r2,r17,-32
    3954:	28830436 	bltu	r5,r2,4568 <___vfprintf_internal_r+0xda0>
    3958:	100490ba 	slli	r2,r2,2
    395c:	01000034 	movhi	r4,0
    3960:	210e5c04 	addi	r4,r4,14704
    3964:	1105883a 	add	r2,r2,r4
    3968:	10800017 	ldw	r2,0(r2)
    396c:	1000683a 	jmp	r2
    3970:	00004488 	cmpgei	zero,zero,274
    3974:	00004568 	cmpgeui	zero,zero,277
    3978:	00004568 	cmpgeui	zero,zero,277
    397c:	000044a8 	cmpgeui	zero,zero,274
    3980:	00004568 	cmpgeui	zero,zero,277
    3984:	00004568 	cmpgeui	zero,zero,277
    3988:	00004568 	cmpgeui	zero,zero,277
    398c:	00004568 	cmpgeui	zero,zero,277
    3990:	00004568 	cmpgeui	zero,zero,277
    3994:	00004568 	cmpgeui	zero,zero,277
    3998:	00003c1c 	xori	zero,zero,240
    399c:	000043c4 	movi	zero,271
    39a0:	00004568 	cmpgeui	zero,zero,277
    39a4:	00003ae4 	muli	zero,zero,235
    39a8:	00003c44 	movi	zero,241
    39ac:	00004568 	cmpgeui	zero,zero,277
    39b0:	00003c84 	movi	zero,242
    39b4:	00003c90 	cmplti	zero,zero,242
    39b8:	00003c90 	cmplti	zero,zero,242
    39bc:	00003c90 	cmplti	zero,zero,242
    39c0:	00003c90 	cmplti	zero,zero,242
    39c4:	00003c90 	cmplti	zero,zero,242
    39c8:	00003c90 	cmplti	zero,zero,242
    39cc:	00003c90 	cmplti	zero,zero,242
    39d0:	00003c90 	cmplti	zero,zero,242
    39d4:	00003c90 	cmplti	zero,zero,242
    39d8:	00004568 	cmpgeui	zero,zero,277
    39dc:	00004568 	cmpgeui	zero,zero,277
    39e0:	00004568 	cmpgeui	zero,zero,277
    39e4:	00004568 	cmpgeui	zero,zero,277
    39e8:	00004568 	cmpgeui	zero,zero,277
    39ec:	00004568 	cmpgeui	zero,zero,277
    39f0:	00004568 	cmpgeui	zero,zero,277
    39f4:	00004568 	cmpgeui	zero,zero,277
    39f8:	00004568 	cmpgeui	zero,zero,277
    39fc:	00004568 	cmpgeui	zero,zero,277
    3a00:	00003cc4 	movi	zero,243
    3a04:	00003d80 	call	3d8 <init_camera+0x158>
    3a08:	00004568 	cmpgeui	zero,zero,277
    3a0c:	00003d80 	call	3d8 <init_camera+0x158>
    3a10:	00004568 	cmpgeui	zero,zero,277
    3a14:	00004568 	cmpgeui	zero,zero,277
    3a18:	00004568 	cmpgeui	zero,zero,277
    3a1c:	00004568 	cmpgeui	zero,zero,277
    3a20:	00003e20 	cmpeqi	zero,zero,248
    3a24:	00004568 	cmpgeui	zero,zero,277
    3a28:	00004568 	cmpgeui	zero,zero,277
    3a2c:	00003e2c 	andhi	zero,zero,248
    3a30:	00004568 	cmpgeui	zero,zero,277
    3a34:	00004568 	cmpgeui	zero,zero,277
    3a38:	00004568 	cmpgeui	zero,zero,277
    3a3c:	00004568 	cmpgeui	zero,zero,277
    3a40:	00004568 	cmpgeui	zero,zero,277
    3a44:	000042a4 	muli	zero,zero,266
    3a48:	00004568 	cmpgeui	zero,zero,277
    3a4c:	00004568 	cmpgeui	zero,zero,277
    3a50:	00004304 	movi	zero,268
    3a54:	00004568 	cmpgeui	zero,zero,277
    3a58:	00004568 	cmpgeui	zero,zero,277
    3a5c:	00004568 	cmpgeui	zero,zero,277
    3a60:	00004568 	cmpgeui	zero,zero,277
    3a64:	00004568 	cmpgeui	zero,zero,277
    3a68:	00004568 	cmpgeui	zero,zero,277
    3a6c:	00004568 	cmpgeui	zero,zero,277
    3a70:	00004568 	cmpgeui	zero,zero,277
    3a74:	00004568 	cmpgeui	zero,zero,277
    3a78:	00004568 	cmpgeui	zero,zero,277
    3a7c:	00004514 	movui	zero,276
    3a80:	000044b4 	movhi	zero,274
    3a84:	00003d80 	call	3d8 <init_camera+0x158>
    3a88:	00003d80 	call	3d8 <init_camera+0x158>
    3a8c:	00003d80 	call	3d8 <init_camera+0x158>
    3a90:	000044c4 	movi	zero,275
    3a94:	000044b4 	movhi	zero,274
    3a98:	00004568 	cmpgeui	zero,zero,277
    3a9c:	00004568 	cmpgeui	zero,zero,277
    3aa0:	000044d0 	cmplti	zero,zero,275
    3aa4:	00004568 	cmpgeui	zero,zero,277
    3aa8:	000044e0 	cmpeqi	zero,zero,275
    3aac:	000043b4 	movhi	zero,270
    3ab0:	00003af0 	cmpltui	zero,zero,235
    3ab4:	000043d4 	movui	zero,271
    3ab8:	00004568 	cmpgeui	zero,zero,277
    3abc:	000043e0 	cmpeqi	zero,zero,271
    3ac0:	00004568 	cmpgeui	zero,zero,277
    3ac4:	0000443c 	xorhi	zero,zero,272
    3ac8:	00004568 	cmpgeui	zero,zero,277
    3acc:	00004568 	cmpgeui	zero,zero,277
    3ad0:	0000444c 	andi	zero,zero,273
    3ad4:	d9003117 	ldw	r4,196(sp)
    3ad8:	d8802d15 	stw	r2,180(sp)
    3adc:	0109c83a 	sub	r4,zero,r4
    3ae0:	d9003115 	stw	r4,196(sp)
    3ae4:	94800114 	ori	r18,r18,4
    3ae8:	ac400007 	ldb	r17,0(r21)
    3aec:	003f9706 	br	394c <___vfprintf_internal_r+0x184>
    3af0:	00800c04 	movi	r2,48
    3af4:	d9002d17 	ldw	r4,180(sp)
    3af8:	d9402917 	ldw	r5,164(sp)
    3afc:	d8802705 	stb	r2,156(sp)
    3b00:	00801e04 	movi	r2,120
    3b04:	d8802745 	stb	r2,157(sp)
    3b08:	d8002785 	stb	zero,158(sp)
    3b0c:	20c00104 	addi	r3,r4,4
    3b10:	24c00017 	ldw	r19,0(r4)
    3b14:	002d883a 	mov	r22,zero
    3b18:	90800094 	ori	r2,r18,2
    3b1c:	28029a16 	blt	r5,zero,4588 <___vfprintf_internal_r+0xdc0>
    3b20:	00bfdfc4 	movi	r2,-129
    3b24:	90a4703a 	and	r18,r18,r2
    3b28:	d8c02d15 	stw	r3,180(sp)
    3b2c:	94800094 	ori	r18,r18,2
    3b30:	9802871e 	bne	r19,zero,4550 <___vfprintf_internal_r+0xd88>
    3b34:	00800074 	movhi	r2,1
    3b38:	10897604 	addi	r2,r2,9688
    3b3c:	d8803915 	stw	r2,228(sp)
    3b40:	04401e04 	movi	r17,120
    3b44:	d8802917 	ldw	r2,164(sp)
    3b48:	0039883a 	mov	fp,zero
    3b4c:	1001e926 	beq	r2,zero,42f4 <___vfprintf_internal_r+0xb2c>
    3b50:	0027883a 	mov	r19,zero
    3b54:	002d883a 	mov	r22,zero
    3b58:	00020506 	br	4370 <___vfprintf_internal_r+0xba8>
    3b5c:	d9002c17 	ldw	r4,176(sp)
    3b60:	b80b883a 	mov	r5,r23
    3b64:	0005a980 	call	5a98 <__swsetup_r>
    3b68:	1005ac1e 	bne	r2,zero,521c <___vfprintf_internal_r+0x1a54>
    3b6c:	b880030b 	ldhu	r2,12(r23)
    3b70:	00c00284 	movi	r3,10
    3b74:	1080068c 	andi	r2,r2,26
    3b78:	10ff3c1e 	bne	r2,r3,386c <___vfprintf_internal_r+0xa4>
    3b7c:	b880038f 	ldh	r2,14(r23)
    3b80:	103f3a16 	blt	r2,zero,386c <___vfprintf_internal_r+0xa4>
    3b84:	d9c02d17 	ldw	r7,180(sp)
    3b88:	d9002c17 	ldw	r4,176(sp)
    3b8c:	a80d883a 	mov	r6,r21
    3b90:	b80b883a 	mov	r5,r23
    3b94:	00059dc0 	call	59dc <__sbprintf>
    3b98:	00001106 	br	3be0 <___vfprintf_internal_r+0x418>
    3b9c:	d9002c17 	ldw	r4,176(sp)
    3ba0:	d9801e04 	addi	r6,sp,120
    3ba4:	b80b883a 	mov	r5,r23
    3ba8:	000a5640 	call	a564 <__sprint_r>
    3bac:	1000081e 	bne	r2,zero,3bd0 <___vfprintf_internal_r+0x408>
    3bb0:	da000404 	addi	r8,sp,16
    3bb4:	003f5306 	br	3904 <___vfprintf_internal_r+0x13c>
    3bb8:	d8802017 	ldw	r2,128(sp)
    3bbc:	10000426 	beq	r2,zero,3bd0 <___vfprintf_internal_r+0x408>
    3bc0:	d9002c17 	ldw	r4,176(sp)
    3bc4:	d9801e04 	addi	r6,sp,120
    3bc8:	b80b883a 	mov	r5,r23
    3bcc:	000a5640 	call	a564 <__sprint_r>
    3bd0:	b880030b 	ldhu	r2,12(r23)
    3bd4:	1080100c 	andi	r2,r2,64
    3bd8:	1005901e 	bne	r2,zero,521c <___vfprintf_internal_r+0x1a54>
    3bdc:	d8802f17 	ldw	r2,188(sp)
    3be0:	dfc04717 	ldw	ra,284(sp)
    3be4:	df004617 	ldw	fp,280(sp)
    3be8:	ddc04517 	ldw	r23,276(sp)
    3bec:	dd804417 	ldw	r22,272(sp)
    3bf0:	dd404317 	ldw	r21,268(sp)
    3bf4:	dd004217 	ldw	r20,264(sp)
    3bf8:	dcc04117 	ldw	r19,260(sp)
    3bfc:	dc804017 	ldw	r18,256(sp)
    3c00:	dc403f17 	ldw	r17,252(sp)
    3c04:	dc003e17 	ldw	r16,248(sp)
    3c08:	dec04804 	addi	sp,sp,288
    3c0c:	f800283a 	ret
    3c10:	d9002c17 	ldw	r4,176(sp)
    3c14:	0007a6c0 	call	7a6c <__sinit>
    3c18:	003f0406 	br	382c <___vfprintf_internal_r+0x64>
    3c1c:	d8802d17 	ldw	r2,180(sp)
    3c20:	d9002d17 	ldw	r4,180(sp)
    3c24:	10800017 	ldw	r2,0(r2)
    3c28:	d8803115 	stw	r2,196(sp)
    3c2c:	20800104 	addi	r2,r4,4
    3c30:	d9003117 	ldw	r4,196(sp)
    3c34:	203fa716 	blt	r4,zero,3ad4 <___vfprintf_internal_r+0x30c>
    3c38:	d8802d15 	stw	r2,180(sp)
    3c3c:	ac400007 	ldb	r17,0(r21)
    3c40:	003f4206 	br	394c <___vfprintf_internal_r+0x184>
    3c44:	ac400007 	ldb	r17,0(r21)
    3c48:	aac00044 	addi	r11,r21,1
    3c4c:	8a872826 	beq	r17,r10,58f0 <___vfprintf_internal_r+0x2128>
    3c50:	88bff404 	addi	r2,r17,-48
    3c54:	0009883a 	mov	r4,zero
    3c58:	30867d36 	bltu	r6,r2,5650 <___vfprintf_internal_r+0x1e88>
    3c5c:	5c400007 	ldb	r17,0(r11)
    3c60:	210002a4 	muli	r4,r4,10
    3c64:	5d400044 	addi	r21,r11,1
    3c68:	a817883a 	mov	r11,r21
    3c6c:	2089883a 	add	r4,r4,r2
    3c70:	88bff404 	addi	r2,r17,-48
    3c74:	30bff92e 	bgeu	r6,r2,3c5c <___vfprintf_internal_r+0x494>
    3c78:	2005c916 	blt	r4,zero,53a0 <___vfprintf_internal_r+0x1bd8>
    3c7c:	d9002915 	stw	r4,164(sp)
    3c80:	003f3306 	br	3950 <___vfprintf_internal_r+0x188>
    3c84:	94802014 	ori	r18,r18,128
    3c88:	ac400007 	ldb	r17,0(r21)
    3c8c:	003f2f06 	br	394c <___vfprintf_internal_r+0x184>
    3c90:	a809883a 	mov	r4,r21
    3c94:	d8003115 	stw	zero,196(sp)
    3c98:	88bff404 	addi	r2,r17,-48
    3c9c:	0017883a 	mov	r11,zero
    3ca0:	24400007 	ldb	r17,0(r4)
    3ca4:	5ac002a4 	muli	r11,r11,10
    3ca8:	ad400044 	addi	r21,r21,1
    3cac:	a809883a 	mov	r4,r21
    3cb0:	12d7883a 	add	r11,r2,r11
    3cb4:	88bff404 	addi	r2,r17,-48
    3cb8:	30bff92e 	bgeu	r6,r2,3ca0 <___vfprintf_internal_r+0x4d8>
    3cbc:	dac03115 	stw	r11,196(sp)
    3cc0:	003f2306 	br	3950 <___vfprintf_internal_r+0x188>
    3cc4:	18c03fcc 	andi	r3,r3,255
    3cc8:	18072b1e 	bne	r3,zero,5978 <___vfprintf_internal_r+0x21b0>
    3ccc:	94800414 	ori	r18,r18,16
    3cd0:	9080080c 	andi	r2,r18,32
    3cd4:	10037b26 	beq	r2,zero,4ac4 <___vfprintf_internal_r+0x12fc>
    3cd8:	d9402d17 	ldw	r5,180(sp)
    3cdc:	28800117 	ldw	r2,4(r5)
    3ce0:	2cc00017 	ldw	r19,0(r5)
    3ce4:	29400204 	addi	r5,r5,8
    3ce8:	d9402d15 	stw	r5,180(sp)
    3cec:	102d883a 	mov	r22,r2
    3cf0:	10044b16 	blt	r2,zero,4e20 <___vfprintf_internal_r+0x1658>
    3cf4:	d9402917 	ldw	r5,164(sp)
    3cf8:	df002783 	ldbu	fp,158(sp)
    3cfc:	2803bc16 	blt	r5,zero,4bf0 <___vfprintf_internal_r+0x1428>
    3d00:	00ffdfc4 	movi	r3,-129
    3d04:	9d84b03a 	or	r2,r19,r22
    3d08:	90e4703a 	and	r18,r18,r3
    3d0c:	10017726 	beq	r2,zero,42ec <___vfprintf_internal_r+0xb24>
    3d10:	b0038326 	beq	r22,zero,4b20 <___vfprintf_internal_r+0x1358>
    3d14:	dc402a15 	stw	r17,168(sp)
    3d18:	dc001e04 	addi	r16,sp,120
    3d1c:	b023883a 	mov	r17,r22
    3d20:	402d883a 	mov	r22,r8
    3d24:	9809883a 	mov	r4,r19
    3d28:	880b883a 	mov	r5,r17
    3d2c:	01800284 	movi	r6,10
    3d30:	000f883a 	mov	r7,zero
    3d34:	000c95c0 	call	c95c <__umoddi3>
    3d38:	10800c04 	addi	r2,r2,48
    3d3c:	843fffc4 	addi	r16,r16,-1
    3d40:	9809883a 	mov	r4,r19
    3d44:	880b883a 	mov	r5,r17
    3d48:	80800005 	stb	r2,0(r16)
    3d4c:	01800284 	movi	r6,10
    3d50:	000f883a 	mov	r7,zero
    3d54:	000c3e40 	call	c3e4 <__udivdi3>
    3d58:	1027883a 	mov	r19,r2
    3d5c:	10c4b03a 	or	r2,r2,r3
    3d60:	1823883a 	mov	r17,r3
    3d64:	103fef1e 	bne	r2,zero,3d24 <___vfprintf_internal_r+0x55c>
    3d68:	d8c02817 	ldw	r3,160(sp)
    3d6c:	dc402a17 	ldw	r17,168(sp)
    3d70:	b011883a 	mov	r8,r22
    3d74:	1c07c83a 	sub	r3,r3,r16
    3d78:	d8c02e15 	stw	r3,184(sp)
    3d7c:	00005906 	br	3ee4 <___vfprintf_internal_r+0x71c>
    3d80:	18c03fcc 	andi	r3,r3,255
    3d84:	1806fa1e 	bne	r3,zero,5970 <___vfprintf_internal_r+0x21a8>
    3d88:	9080020c 	andi	r2,r18,8
    3d8c:	10048a26 	beq	r2,zero,4fb8 <___vfprintf_internal_r+0x17f0>
    3d90:	d8c02d17 	ldw	r3,180(sp)
    3d94:	d9002d17 	ldw	r4,180(sp)
    3d98:	d9402d17 	ldw	r5,180(sp)
    3d9c:	18c00017 	ldw	r3,0(r3)
    3da0:	21000117 	ldw	r4,4(r4)
    3da4:	29400204 	addi	r5,r5,8
    3da8:	d8c03615 	stw	r3,216(sp)
    3dac:	d9003815 	stw	r4,224(sp)
    3db0:	d9402d15 	stw	r5,180(sp)
    3db4:	d9003617 	ldw	r4,216(sp)
    3db8:	d9403817 	ldw	r5,224(sp)
    3dbc:	da003d15 	stw	r8,244(sp)
    3dc0:	04000044 	movi	r16,1
    3dc4:	000a1dc0 	call	a1dc <__fpclassifyd>
    3dc8:	da003d17 	ldw	r8,244(sp)
    3dcc:	14041f1e 	bne	r2,r16,4e4c <___vfprintf_internal_r+0x1684>
    3dd0:	d9003617 	ldw	r4,216(sp)
    3dd4:	d9403817 	ldw	r5,224(sp)
    3dd8:	000d883a 	mov	r6,zero
    3ddc:	000f883a 	mov	r7,zero
    3de0:	000e3400 	call	e340 <__ledf2>
    3de4:	da003d17 	ldw	r8,244(sp)
    3de8:	1005be16 	blt	r2,zero,54e4 <___vfprintf_internal_r+0x1d1c>
    3dec:	df002783 	ldbu	fp,158(sp)
    3df0:	008011c4 	movi	r2,71
    3df4:	1445330e 	bge	r2,r17,52c4 <___vfprintf_internal_r+0x1afc>
    3df8:	04000074 	movhi	r16,1
    3dfc:	84096e04 	addi	r16,r16,9656
    3e00:	00c000c4 	movi	r3,3
    3e04:	00bfdfc4 	movi	r2,-129
    3e08:	d8c02a15 	stw	r3,168(sp)
    3e0c:	90a4703a 	and	r18,r18,r2
    3e10:	d8c02e15 	stw	r3,184(sp)
    3e14:	d8002915 	stw	zero,164(sp)
    3e18:	d8003215 	stw	zero,200(sp)
    3e1c:	00003706 	br	3efc <___vfprintf_internal_r+0x734>
    3e20:	94800214 	ori	r18,r18,8
    3e24:	ac400007 	ldb	r17,0(r21)
    3e28:	003ec806 	br	394c <___vfprintf_internal_r+0x184>
    3e2c:	18c03fcc 	andi	r3,r3,255
    3e30:	1806db1e 	bne	r3,zero,59a0 <___vfprintf_internal_r+0x21d8>
    3e34:	94800414 	ori	r18,r18,16
    3e38:	9080080c 	andi	r2,r18,32
    3e3c:	1002d826 	beq	r2,zero,49a0 <___vfprintf_internal_r+0x11d8>
    3e40:	d9402d17 	ldw	r5,180(sp)
    3e44:	d8c02917 	ldw	r3,164(sp)
    3e48:	d8002785 	stb	zero,158(sp)
    3e4c:	28800204 	addi	r2,r5,8
    3e50:	2cc00017 	ldw	r19,0(r5)
    3e54:	2d800117 	ldw	r22,4(r5)
    3e58:	18048f16 	blt	r3,zero,5098 <___vfprintf_internal_r+0x18d0>
    3e5c:	013fdfc4 	movi	r4,-129
    3e60:	9d86b03a 	or	r3,r19,r22
    3e64:	d8802d15 	stw	r2,180(sp)
    3e68:	9124703a 	and	r18,r18,r4
    3e6c:	1802d91e 	bne	r3,zero,49d4 <___vfprintf_internal_r+0x120c>
    3e70:	d8c02917 	ldw	r3,164(sp)
    3e74:	0039883a 	mov	fp,zero
    3e78:	1805c326 	beq	r3,zero,5588 <___vfprintf_internal_r+0x1dc0>
    3e7c:	0027883a 	mov	r19,zero
    3e80:	002d883a 	mov	r22,zero
    3e84:	dc001e04 	addi	r16,sp,120
    3e88:	9806d0fa 	srli	r3,r19,3
    3e8c:	b008977a 	slli	r4,r22,29
    3e90:	b02cd0fa 	srli	r22,r22,3
    3e94:	9cc001cc 	andi	r19,r19,7
    3e98:	98800c04 	addi	r2,r19,48
    3e9c:	843fffc4 	addi	r16,r16,-1
    3ea0:	20e6b03a 	or	r19,r4,r3
    3ea4:	80800005 	stb	r2,0(r16)
    3ea8:	9d86b03a 	or	r3,r19,r22
    3eac:	183ff61e 	bne	r3,zero,3e88 <___vfprintf_internal_r+0x6c0>
    3eb0:	90c0004c 	andi	r3,r18,1
    3eb4:	18013b26 	beq	r3,zero,43a4 <___vfprintf_internal_r+0xbdc>
    3eb8:	10803fcc 	andi	r2,r2,255
    3ebc:	1080201c 	xori	r2,r2,128
    3ec0:	10bfe004 	addi	r2,r2,-128
    3ec4:	00c00c04 	movi	r3,48
    3ec8:	10c13626 	beq	r2,r3,43a4 <___vfprintf_internal_r+0xbdc>
    3ecc:	80ffffc5 	stb	r3,-1(r16)
    3ed0:	d8c02817 	ldw	r3,160(sp)
    3ed4:	80bfffc4 	addi	r2,r16,-1
    3ed8:	1021883a 	mov	r16,r2
    3edc:	1887c83a 	sub	r3,r3,r2
    3ee0:	d8c02e15 	stw	r3,184(sp)
    3ee4:	d8802e17 	ldw	r2,184(sp)
    3ee8:	d9002917 	ldw	r4,164(sp)
    3eec:	1100010e 	bge	r2,r4,3ef4 <___vfprintf_internal_r+0x72c>
    3ef0:	2005883a 	mov	r2,r4
    3ef4:	d8802a15 	stw	r2,168(sp)
    3ef8:	d8003215 	stw	zero,200(sp)
    3efc:	e7003fcc 	andi	fp,fp,255
    3f00:	e700201c 	xori	fp,fp,128
    3f04:	e73fe004 	addi	fp,fp,-128
    3f08:	e0000326 	beq	fp,zero,3f18 <___vfprintf_internal_r+0x750>
    3f0c:	d8c02a17 	ldw	r3,168(sp)
    3f10:	18c00044 	addi	r3,r3,1
    3f14:	d8c02a15 	stw	r3,168(sp)
    3f18:	90c0008c 	andi	r3,r18,2
    3f1c:	d8c02b15 	stw	r3,172(sp)
    3f20:	18000326 	beq	r3,zero,3f30 <___vfprintf_internal_r+0x768>
    3f24:	d8c02a17 	ldw	r3,168(sp)
    3f28:	18c00084 	addi	r3,r3,2
    3f2c:	d8c02a15 	stw	r3,168(sp)
    3f30:	90c0210c 	andi	r3,r18,132
    3f34:	d8c03015 	stw	r3,192(sp)
    3f38:	1801a31e 	bne	r3,zero,45c8 <___vfprintf_internal_r+0xe00>
    3f3c:	d9003117 	ldw	r4,196(sp)
    3f40:	d8c02a17 	ldw	r3,168(sp)
    3f44:	20e7c83a 	sub	r19,r4,r3
    3f48:	04c19f0e 	bge	zero,r19,45c8 <___vfprintf_internal_r+0xe00>
    3f4c:	02400404 	movi	r9,16
    3f50:	d8c02017 	ldw	r3,128(sp)
    3f54:	d8801f17 	ldw	r2,124(sp)
    3f58:	4cc50d0e 	bge	r9,r19,5390 <___vfprintf_internal_r+0x1bc8>
    3f5c:	01400074 	movhi	r5,1
    3f60:	29498184 	addi	r5,r5,9734
    3f64:	dc403b15 	stw	r17,236(sp)
    3f68:	d9403515 	stw	r5,212(sp)
    3f6c:	9823883a 	mov	r17,r19
    3f70:	482d883a 	mov	r22,r9
    3f74:	9027883a 	mov	r19,r18
    3f78:	070001c4 	movi	fp,7
    3f7c:	8025883a 	mov	r18,r16
    3f80:	dc002c17 	ldw	r16,176(sp)
    3f84:	00000306 	br	3f94 <___vfprintf_internal_r+0x7cc>
    3f88:	8c7ffc04 	addi	r17,r17,-16
    3f8c:	42000204 	addi	r8,r8,8
    3f90:	b440130e 	bge	r22,r17,3fe0 <___vfprintf_internal_r+0x818>
    3f94:	01000074 	movhi	r4,1
    3f98:	18c00404 	addi	r3,r3,16
    3f9c:	10800044 	addi	r2,r2,1
    3fa0:	21098184 	addi	r4,r4,9734
    3fa4:	41000015 	stw	r4,0(r8)
    3fa8:	45800115 	stw	r22,4(r8)
    3fac:	d8c02015 	stw	r3,128(sp)
    3fb0:	d8801f15 	stw	r2,124(sp)
    3fb4:	e0bff40e 	bge	fp,r2,3f88 <___vfprintf_internal_r+0x7c0>
    3fb8:	d9801e04 	addi	r6,sp,120
    3fbc:	b80b883a 	mov	r5,r23
    3fc0:	8009883a 	mov	r4,r16
    3fc4:	000a5640 	call	a564 <__sprint_r>
    3fc8:	103f011e 	bne	r2,zero,3bd0 <___vfprintf_internal_r+0x408>
    3fcc:	8c7ffc04 	addi	r17,r17,-16
    3fd0:	d8c02017 	ldw	r3,128(sp)
    3fd4:	d8801f17 	ldw	r2,124(sp)
    3fd8:	da000404 	addi	r8,sp,16
    3fdc:	b47fed16 	blt	r22,r17,3f94 <___vfprintf_internal_r+0x7cc>
    3fe0:	9021883a 	mov	r16,r18
    3fe4:	9825883a 	mov	r18,r19
    3fe8:	8827883a 	mov	r19,r17
    3fec:	dc403b17 	ldw	r17,236(sp)
    3ff0:	d9403517 	ldw	r5,212(sp)
    3ff4:	98c7883a 	add	r3,r19,r3
    3ff8:	10800044 	addi	r2,r2,1
    3ffc:	41400015 	stw	r5,0(r8)
    4000:	44c00115 	stw	r19,4(r8)
    4004:	d8c02015 	stw	r3,128(sp)
    4008:	d8801f15 	stw	r2,124(sp)
    400c:	010001c4 	movi	r4,7
    4010:	2082a316 	blt	r4,r2,4aa0 <___vfprintf_internal_r+0x12d8>
    4014:	df002787 	ldb	fp,158(sp)
    4018:	42000204 	addi	r8,r8,8
    401c:	e0000c26 	beq	fp,zero,4050 <___vfprintf_internal_r+0x888>
    4020:	d8801f17 	ldw	r2,124(sp)
    4024:	d9002784 	addi	r4,sp,158
    4028:	18c00044 	addi	r3,r3,1
    402c:	10800044 	addi	r2,r2,1
    4030:	41000015 	stw	r4,0(r8)
    4034:	01000044 	movi	r4,1
    4038:	41000115 	stw	r4,4(r8)
    403c:	d8c02015 	stw	r3,128(sp)
    4040:	d8801f15 	stw	r2,124(sp)
    4044:	010001c4 	movi	r4,7
    4048:	20823c16 	blt	r4,r2,493c <___vfprintf_internal_r+0x1174>
    404c:	42000204 	addi	r8,r8,8
    4050:	d8802b17 	ldw	r2,172(sp)
    4054:	10000c26 	beq	r2,zero,4088 <___vfprintf_internal_r+0x8c0>
    4058:	d8801f17 	ldw	r2,124(sp)
    405c:	d9002704 	addi	r4,sp,156
    4060:	18c00084 	addi	r3,r3,2
    4064:	10800044 	addi	r2,r2,1
    4068:	41000015 	stw	r4,0(r8)
    406c:	01000084 	movi	r4,2
    4070:	41000115 	stw	r4,4(r8)
    4074:	d8c02015 	stw	r3,128(sp)
    4078:	d8801f15 	stw	r2,124(sp)
    407c:	010001c4 	movi	r4,7
    4080:	20823616 	blt	r4,r2,495c <___vfprintf_internal_r+0x1194>
    4084:	42000204 	addi	r8,r8,8
    4088:	d9003017 	ldw	r4,192(sp)
    408c:	00802004 	movi	r2,128
    4090:	20819926 	beq	r4,r2,46f8 <___vfprintf_internal_r+0xf30>
    4094:	d9402917 	ldw	r5,164(sp)
    4098:	d8802e17 	ldw	r2,184(sp)
    409c:	28adc83a 	sub	r22,r5,r2
    40a0:	0580310e 	bge	zero,r22,4168 <___vfprintf_internal_r+0x9a0>
    40a4:	07000404 	movi	fp,16
    40a8:	d8801f17 	ldw	r2,124(sp)
    40ac:	e584140e 	bge	fp,r22,5100 <___vfprintf_internal_r+0x1938>
    40b0:	01400074 	movhi	r5,1
    40b4:	29497d84 	addi	r5,r5,9718
    40b8:	dc402915 	stw	r17,164(sp)
    40bc:	d9402b15 	stw	r5,172(sp)
    40c0:	b023883a 	mov	r17,r22
    40c4:	04c001c4 	movi	r19,7
    40c8:	a82d883a 	mov	r22,r21
    40cc:	902b883a 	mov	r21,r18
    40d0:	8025883a 	mov	r18,r16
    40d4:	dc002c17 	ldw	r16,176(sp)
    40d8:	00000306 	br	40e8 <___vfprintf_internal_r+0x920>
    40dc:	8c7ffc04 	addi	r17,r17,-16
    40e0:	42000204 	addi	r8,r8,8
    40e4:	e440110e 	bge	fp,r17,412c <___vfprintf_internal_r+0x964>
    40e8:	18c00404 	addi	r3,r3,16
    40ec:	10800044 	addi	r2,r2,1
    40f0:	45000015 	stw	r20,0(r8)
    40f4:	47000115 	stw	fp,4(r8)
    40f8:	d8c02015 	stw	r3,128(sp)
    40fc:	d8801f15 	stw	r2,124(sp)
    4100:	98bff60e 	bge	r19,r2,40dc <___vfprintf_internal_r+0x914>
    4104:	d9801e04 	addi	r6,sp,120
    4108:	b80b883a 	mov	r5,r23
    410c:	8009883a 	mov	r4,r16
    4110:	000a5640 	call	a564 <__sprint_r>
    4114:	103eae1e 	bne	r2,zero,3bd0 <___vfprintf_internal_r+0x408>
    4118:	8c7ffc04 	addi	r17,r17,-16
    411c:	d8c02017 	ldw	r3,128(sp)
    4120:	d8801f17 	ldw	r2,124(sp)
    4124:	da000404 	addi	r8,sp,16
    4128:	e47fef16 	blt	fp,r17,40e8 <___vfprintf_internal_r+0x920>
    412c:	9021883a 	mov	r16,r18
    4130:	a825883a 	mov	r18,r21
    4134:	b02b883a 	mov	r21,r22
    4138:	882d883a 	mov	r22,r17
    413c:	dc402917 	ldw	r17,164(sp)
    4140:	d9002b17 	ldw	r4,172(sp)
    4144:	1d87883a 	add	r3,r3,r22
    4148:	10800044 	addi	r2,r2,1
    414c:	41000015 	stw	r4,0(r8)
    4150:	45800115 	stw	r22,4(r8)
    4154:	d8c02015 	stw	r3,128(sp)
    4158:	d8801f15 	stw	r2,124(sp)
    415c:	010001c4 	movi	r4,7
    4160:	2081ee16 	blt	r4,r2,491c <___vfprintf_internal_r+0x1154>
    4164:	42000204 	addi	r8,r8,8
    4168:	9080400c 	andi	r2,r18,256
    416c:	1001181e 	bne	r2,zero,45d0 <___vfprintf_internal_r+0xe08>
    4170:	d9402e17 	ldw	r5,184(sp)
    4174:	d8801f17 	ldw	r2,124(sp)
    4178:	44000015 	stw	r16,0(r8)
    417c:	1947883a 	add	r3,r3,r5
    4180:	10800044 	addi	r2,r2,1
    4184:	41400115 	stw	r5,4(r8)
    4188:	d8c02015 	stw	r3,128(sp)
    418c:	d8801f15 	stw	r2,124(sp)
    4190:	010001c4 	movi	r4,7
    4194:	2081d316 	blt	r4,r2,48e4 <___vfprintf_internal_r+0x111c>
    4198:	42000204 	addi	r8,r8,8
    419c:	9480010c 	andi	r18,r18,4
    41a0:	90003226 	beq	r18,zero,426c <___vfprintf_internal_r+0xaa4>
    41a4:	d9403117 	ldw	r5,196(sp)
    41a8:	d8802a17 	ldw	r2,168(sp)
    41ac:	28a1c83a 	sub	r16,r5,r2
    41b0:	04002e0e 	bge	zero,r16,426c <___vfprintf_internal_r+0xaa4>
    41b4:	04400404 	movi	r17,16
    41b8:	d8801f17 	ldw	r2,124(sp)
    41bc:	8c04a20e 	bge	r17,r16,5448 <___vfprintf_internal_r+0x1c80>
    41c0:	01400074 	movhi	r5,1
    41c4:	29498184 	addi	r5,r5,9734
    41c8:	d9403515 	stw	r5,212(sp)
    41cc:	048001c4 	movi	r18,7
    41d0:	dcc02c17 	ldw	r19,176(sp)
    41d4:	00000306 	br	41e4 <___vfprintf_internal_r+0xa1c>
    41d8:	843ffc04 	addi	r16,r16,-16
    41dc:	42000204 	addi	r8,r8,8
    41e0:	8c00130e 	bge	r17,r16,4230 <___vfprintf_internal_r+0xa68>
    41e4:	01000074 	movhi	r4,1
    41e8:	18c00404 	addi	r3,r3,16
    41ec:	10800044 	addi	r2,r2,1
    41f0:	21098184 	addi	r4,r4,9734
    41f4:	41000015 	stw	r4,0(r8)
    41f8:	44400115 	stw	r17,4(r8)
    41fc:	d8c02015 	stw	r3,128(sp)
    4200:	d8801f15 	stw	r2,124(sp)
    4204:	90bff40e 	bge	r18,r2,41d8 <___vfprintf_internal_r+0xa10>
    4208:	d9801e04 	addi	r6,sp,120
    420c:	b80b883a 	mov	r5,r23
    4210:	9809883a 	mov	r4,r19
    4214:	000a5640 	call	a564 <__sprint_r>
    4218:	103e6d1e 	bne	r2,zero,3bd0 <___vfprintf_internal_r+0x408>
    421c:	843ffc04 	addi	r16,r16,-16
    4220:	d8c02017 	ldw	r3,128(sp)
    4224:	d8801f17 	ldw	r2,124(sp)
    4228:	da000404 	addi	r8,sp,16
    422c:	8c3fed16 	blt	r17,r16,41e4 <___vfprintf_internal_r+0xa1c>
    4230:	d9403517 	ldw	r5,212(sp)
    4234:	1c07883a 	add	r3,r3,r16
    4238:	10800044 	addi	r2,r2,1
    423c:	41400015 	stw	r5,0(r8)
    4240:	44000115 	stw	r16,4(r8)
    4244:	d8c02015 	stw	r3,128(sp)
    4248:	d8801f15 	stw	r2,124(sp)
    424c:	010001c4 	movi	r4,7
    4250:	2080060e 	bge	r4,r2,426c <___vfprintf_internal_r+0xaa4>
    4254:	d9002c17 	ldw	r4,176(sp)
    4258:	d9801e04 	addi	r6,sp,120
    425c:	b80b883a 	mov	r5,r23
    4260:	000a5640 	call	a564 <__sprint_r>
    4264:	103e5a1e 	bne	r2,zero,3bd0 <___vfprintf_internal_r+0x408>
    4268:	d8c02017 	ldw	r3,128(sp)
    426c:	d8803117 	ldw	r2,196(sp)
    4270:	d9002a17 	ldw	r4,168(sp)
    4274:	1100010e 	bge	r2,r4,427c <___vfprintf_internal_r+0xab4>
    4278:	2005883a 	mov	r2,r4
    427c:	d9402f17 	ldw	r5,188(sp)
    4280:	288b883a 	add	r5,r5,r2
    4284:	d9402f15 	stw	r5,188(sp)
    4288:	18019e1e 	bne	r3,zero,4904 <___vfprintf_internal_r+0x113c>
    428c:	a8800007 	ldb	r2,0(r21)
    4290:	d8001f15 	stw	zero,124(sp)
    4294:	da000404 	addi	r8,sp,16
    4298:	103d851e 	bne	r2,zero,38b0 <___vfprintf_internal_r+0xe8>
    429c:	a821883a 	mov	r16,r21
    42a0:	003d9b06 	br	3910 <___vfprintf_internal_r+0x148>
    42a4:	18c03fcc 	andi	r3,r3,255
    42a8:	1805c11e 	bne	r3,zero,59b0 <___vfprintf_internal_r+0x21e8>
    42ac:	94800414 	ori	r18,r18,16
    42b0:	9080080c 	andi	r2,r18,32
    42b4:	10020c26 	beq	r2,zero,4ae8 <___vfprintf_internal_r+0x1320>
    42b8:	d8802d17 	ldw	r2,180(sp)
    42bc:	d9002917 	ldw	r4,164(sp)
    42c0:	d8002785 	stb	zero,158(sp)
    42c4:	10c00204 	addi	r3,r2,8
    42c8:	14c00017 	ldw	r19,0(r2)
    42cc:	15800117 	ldw	r22,4(r2)
    42d0:	20040f16 	blt	r4,zero,5310 <___vfprintf_internal_r+0x1b48>
    42d4:	013fdfc4 	movi	r4,-129
    42d8:	9d84b03a 	or	r2,r19,r22
    42dc:	d8c02d15 	stw	r3,180(sp)
    42e0:	9124703a 	and	r18,r18,r4
    42e4:	0039883a 	mov	fp,zero
    42e8:	103e891e 	bne	r2,zero,3d10 <___vfprintf_internal_r+0x548>
    42ec:	d9002917 	ldw	r4,164(sp)
    42f0:	2002c11e 	bne	r4,zero,4df8 <___vfprintf_internal_r+0x1630>
    42f4:	d8002915 	stw	zero,164(sp)
    42f8:	d8002e15 	stw	zero,184(sp)
    42fc:	dc001e04 	addi	r16,sp,120
    4300:	003ef806 	br	3ee4 <___vfprintf_internal_r+0x71c>
    4304:	18c03fcc 	andi	r3,r3,255
    4308:	18059d1e 	bne	r3,zero,5980 <___vfprintf_internal_r+0x21b8>
    430c:	01400074 	movhi	r5,1
    4310:	29497104 	addi	r5,r5,9668
    4314:	d9403915 	stw	r5,228(sp)
    4318:	9080080c 	andi	r2,r18,32
    431c:	10005226 	beq	r2,zero,4468 <___vfprintf_internal_r+0xca0>
    4320:	d8802d17 	ldw	r2,180(sp)
    4324:	14c00017 	ldw	r19,0(r2)
    4328:	15800117 	ldw	r22,4(r2)
    432c:	10800204 	addi	r2,r2,8
    4330:	d8802d15 	stw	r2,180(sp)
    4334:	9080004c 	andi	r2,r18,1
    4338:	10019026 	beq	r2,zero,497c <___vfprintf_internal_r+0x11b4>
    433c:	9d84b03a 	or	r2,r19,r22
    4340:	10036926 	beq	r2,zero,50e8 <___vfprintf_internal_r+0x1920>
    4344:	d8c02917 	ldw	r3,164(sp)
    4348:	00800c04 	movi	r2,48
    434c:	d8802705 	stb	r2,156(sp)
    4350:	dc402745 	stb	r17,157(sp)
    4354:	d8002785 	stb	zero,158(sp)
    4358:	90800094 	ori	r2,r18,2
    435c:	18045d16 	blt	r3,zero,54d4 <___vfprintf_internal_r+0x1d0c>
    4360:	00bfdfc4 	movi	r2,-129
    4364:	90a4703a 	and	r18,r18,r2
    4368:	94800094 	ori	r18,r18,2
    436c:	0039883a 	mov	fp,zero
    4370:	d9003917 	ldw	r4,228(sp)
    4374:	dc001e04 	addi	r16,sp,120
    4378:	988003cc 	andi	r2,r19,15
    437c:	b006973a 	slli	r3,r22,28
    4380:	2085883a 	add	r2,r4,r2
    4384:	9826d13a 	srli	r19,r19,4
    4388:	10800003 	ldbu	r2,0(r2)
    438c:	b02cd13a 	srli	r22,r22,4
    4390:	843fffc4 	addi	r16,r16,-1
    4394:	1ce6b03a 	or	r19,r3,r19
    4398:	80800005 	stb	r2,0(r16)
    439c:	9d84b03a 	or	r2,r19,r22
    43a0:	103ff51e 	bne	r2,zero,4378 <___vfprintf_internal_r+0xbb0>
    43a4:	d8c02817 	ldw	r3,160(sp)
    43a8:	1c07c83a 	sub	r3,r3,r16
    43ac:	d8c02e15 	stw	r3,184(sp)
    43b0:	003ecc06 	br	3ee4 <___vfprintf_internal_r+0x71c>
    43b4:	18c03fcc 	andi	r3,r3,255
    43b8:	183e9f26 	beq	r3,zero,3e38 <___vfprintf_internal_r+0x670>
    43bc:	d9c02785 	stb	r7,158(sp)
    43c0:	003e9d06 	br	3e38 <___vfprintf_internal_r+0x670>
    43c4:	00c00044 	movi	r3,1
    43c8:	01c00ac4 	movi	r7,43
    43cc:	ac400007 	ldb	r17,0(r21)
    43d0:	003d5e06 	br	394c <___vfprintf_internal_r+0x184>
    43d4:	94800814 	ori	r18,r18,32
    43d8:	ac400007 	ldb	r17,0(r21)
    43dc:	003d5b06 	br	394c <___vfprintf_internal_r+0x184>
    43e0:	d8c02d17 	ldw	r3,180(sp)
    43e4:	d8002785 	stb	zero,158(sp)
    43e8:	1c000017 	ldw	r16,0(r3)
    43ec:	1cc00104 	addi	r19,r3,4
    43f0:	80041926 	beq	r16,zero,5458 <___vfprintf_internal_r+0x1c90>
    43f4:	d9002917 	ldw	r4,164(sp)
    43f8:	2003d016 	blt	r4,zero,533c <___vfprintf_internal_r+0x1b74>
    43fc:	200d883a 	mov	r6,r4
    4400:	000b883a 	mov	r5,zero
    4404:	8009883a 	mov	r4,r16
    4408:	da003d15 	stw	r8,244(sp)
    440c:	00087cc0 	call	87cc <memchr>
    4410:	da003d17 	ldw	r8,244(sp)
    4414:	10045426 	beq	r2,zero,5568 <___vfprintf_internal_r+0x1da0>
    4418:	1405c83a 	sub	r2,r2,r16
    441c:	d8802e15 	stw	r2,184(sp)
    4420:	1003cc16 	blt	r2,zero,5354 <___vfprintf_internal_r+0x1b8c>
    4424:	df002783 	ldbu	fp,158(sp)
    4428:	d8802a15 	stw	r2,168(sp)
    442c:	dcc02d15 	stw	r19,180(sp)
    4430:	d8002915 	stw	zero,164(sp)
    4434:	d8003215 	stw	zero,200(sp)
    4438:	003eb006 	br	3efc <___vfprintf_internal_r+0x734>
    443c:	18c03fcc 	andi	r3,r3,255
    4440:	183f9b26 	beq	r3,zero,42b0 <___vfprintf_internal_r+0xae8>
    4444:	d9c02785 	stb	r7,158(sp)
    4448:	003f9906 	br	42b0 <___vfprintf_internal_r+0xae8>
    444c:	18c03fcc 	andi	r3,r3,255
    4450:	1805551e 	bne	r3,zero,59a8 <___vfprintf_internal_r+0x21e0>
    4454:	01400074 	movhi	r5,1
    4458:	29497604 	addi	r5,r5,9688
    445c:	d9403915 	stw	r5,228(sp)
    4460:	9080080c 	andi	r2,r18,32
    4464:	103fae1e 	bne	r2,zero,4320 <___vfprintf_internal_r+0xb58>
    4468:	9080040c 	andi	r2,r18,16
    446c:	1002de26 	beq	r2,zero,4fe8 <___vfprintf_internal_r+0x1820>
    4470:	d8c02d17 	ldw	r3,180(sp)
    4474:	002d883a 	mov	r22,zero
    4478:	1cc00017 	ldw	r19,0(r3)
    447c:	18c00104 	addi	r3,r3,4
    4480:	d8c02d15 	stw	r3,180(sp)
    4484:	003fab06 	br	4334 <___vfprintf_internal_r+0xb6c>
    4488:	38803fcc 	andi	r2,r7,255
    448c:	1080201c 	xori	r2,r2,128
    4490:	10bfe004 	addi	r2,r2,-128
    4494:	1002d21e 	bne	r2,zero,4fe0 <___vfprintf_internal_r+0x1818>
    4498:	00c00044 	movi	r3,1
    449c:	01c00804 	movi	r7,32
    44a0:	ac400007 	ldb	r17,0(r21)
    44a4:	003d2906 	br	394c <___vfprintf_internal_r+0x184>
    44a8:	94800054 	ori	r18,r18,1
    44ac:	ac400007 	ldb	r17,0(r21)
    44b0:	003d2606 	br	394c <___vfprintf_internal_r+0x184>
    44b4:	18c03fcc 	andi	r3,r3,255
    44b8:	183e0526 	beq	r3,zero,3cd0 <___vfprintf_internal_r+0x508>
    44bc:	d9c02785 	stb	r7,158(sp)
    44c0:	003e0306 	br	3cd0 <___vfprintf_internal_r+0x508>
    44c4:	94801014 	ori	r18,r18,64
    44c8:	ac400007 	ldb	r17,0(r21)
    44cc:	003d1f06 	br	394c <___vfprintf_internal_r+0x184>
    44d0:	ac400007 	ldb	r17,0(r21)
    44d4:	8a438726 	beq	r17,r9,52f4 <___vfprintf_internal_r+0x1b2c>
    44d8:	94800414 	ori	r18,r18,16
    44dc:	003d1b06 	br	394c <___vfprintf_internal_r+0x184>
    44e0:	18c03fcc 	andi	r3,r3,255
    44e4:	1805341e 	bne	r3,zero,59b8 <___vfprintf_internal_r+0x21f0>
    44e8:	9080080c 	andi	r2,r18,32
    44ec:	1002cd26 	beq	r2,zero,5024 <___vfprintf_internal_r+0x185c>
    44f0:	d9402d17 	ldw	r5,180(sp)
    44f4:	d9002f17 	ldw	r4,188(sp)
    44f8:	28800017 	ldw	r2,0(r5)
    44fc:	2007d7fa 	srai	r3,r4,31
    4500:	29400104 	addi	r5,r5,4
    4504:	d9402d15 	stw	r5,180(sp)
    4508:	11000015 	stw	r4,0(r2)
    450c:	10c00115 	stw	r3,4(r2)
    4510:	003ce506 	br	38a8 <___vfprintf_internal_r+0xe0>
    4514:	d8c02d17 	ldw	r3,180(sp)
    4518:	d9002d17 	ldw	r4,180(sp)
    451c:	d8002785 	stb	zero,158(sp)
    4520:	18800017 	ldw	r2,0(r3)
    4524:	21000104 	addi	r4,r4,4
    4528:	00c00044 	movi	r3,1
    452c:	d8c02a15 	stw	r3,168(sp)
    4530:	d8801405 	stb	r2,80(sp)
    4534:	d9002d15 	stw	r4,180(sp)
    4538:	d8c02e15 	stw	r3,184(sp)
    453c:	d8002915 	stw	zero,164(sp)
    4540:	d8003215 	stw	zero,200(sp)
    4544:	dc001404 	addi	r16,sp,80
    4548:	0039883a 	mov	fp,zero
    454c:	003e7206 	br	3f18 <___vfprintf_internal_r+0x750>
    4550:	01000074 	movhi	r4,1
    4554:	21097604 	addi	r4,r4,9688
    4558:	0039883a 	mov	fp,zero
    455c:	d9003915 	stw	r4,228(sp)
    4560:	04401e04 	movi	r17,120
    4564:	003f8206 	br	4370 <___vfprintf_internal_r+0xba8>
    4568:	18c03fcc 	andi	r3,r3,255
    456c:	1805061e 	bne	r3,zero,5988 <___vfprintf_internal_r+0x21c0>
    4570:	883d9126 	beq	r17,zero,3bb8 <___vfprintf_internal_r+0x3f0>
    4574:	00c00044 	movi	r3,1
    4578:	d8c02a15 	stw	r3,168(sp)
    457c:	dc401405 	stb	r17,80(sp)
    4580:	d8002785 	stb	zero,158(sp)
    4584:	003fec06 	br	4538 <___vfprintf_internal_r+0xd70>
    4588:	01400074 	movhi	r5,1
    458c:	29497604 	addi	r5,r5,9688
    4590:	d9403915 	stw	r5,228(sp)
    4594:	d8c02d15 	stw	r3,180(sp)
    4598:	1025883a 	mov	r18,r2
    459c:	04401e04 	movi	r17,120
    45a0:	9d84b03a 	or	r2,r19,r22
    45a4:	1000fc1e 	bne	r2,zero,4998 <___vfprintf_internal_r+0x11d0>
    45a8:	0039883a 	mov	fp,zero
    45ac:	00800084 	movi	r2,2
    45b0:	10803fcc 	andi	r2,r2,255
    45b4:	00c00044 	movi	r3,1
    45b8:	10c20f26 	beq	r2,r3,4df8 <___vfprintf_internal_r+0x1630>
    45bc:	00c00084 	movi	r3,2
    45c0:	10fd6326 	beq	r2,r3,3b50 <___vfprintf_internal_r+0x388>
    45c4:	003e2d06 	br	3e7c <___vfprintf_internal_r+0x6b4>
    45c8:	d8c02017 	ldw	r3,128(sp)
    45cc:	003e9306 	br	401c <___vfprintf_internal_r+0x854>
    45d0:	00801944 	movi	r2,101
    45d4:	14407e0e 	bge	r2,r17,47d0 <___vfprintf_internal_r+0x1008>
    45d8:	d9003617 	ldw	r4,216(sp)
    45dc:	d9403817 	ldw	r5,224(sp)
    45e0:	000d883a 	mov	r6,zero
    45e4:	000f883a 	mov	r7,zero
    45e8:	d8c03c15 	stw	r3,240(sp)
    45ec:	da003d15 	stw	r8,244(sp)
    45f0:	000e1dc0 	call	e1dc <__eqdf2>
    45f4:	d8c03c17 	ldw	r3,240(sp)
    45f8:	da003d17 	ldw	r8,244(sp)
    45fc:	1000f71e 	bne	r2,zero,49dc <___vfprintf_internal_r+0x1214>
    4600:	d8801f17 	ldw	r2,124(sp)
    4604:	01000074 	movhi	r4,1
    4608:	21097d04 	addi	r4,r4,9716
    460c:	18c00044 	addi	r3,r3,1
    4610:	10800044 	addi	r2,r2,1
    4614:	41000015 	stw	r4,0(r8)
    4618:	01000044 	movi	r4,1
    461c:	41000115 	stw	r4,4(r8)
    4620:	d8c02015 	stw	r3,128(sp)
    4624:	d8801f15 	stw	r2,124(sp)
    4628:	010001c4 	movi	r4,7
    462c:	2082b816 	blt	r4,r2,5110 <___vfprintf_internal_r+0x1948>
    4630:	42000204 	addi	r8,r8,8
    4634:	d8802617 	ldw	r2,152(sp)
    4638:	d9403317 	ldw	r5,204(sp)
    463c:	11400216 	blt	r2,r5,4648 <___vfprintf_internal_r+0xe80>
    4640:	9080004c 	andi	r2,r18,1
    4644:	103ed526 	beq	r2,zero,419c <___vfprintf_internal_r+0x9d4>
    4648:	d8803717 	ldw	r2,220(sp)
    464c:	d9003417 	ldw	r4,208(sp)
    4650:	d9403717 	ldw	r5,220(sp)
    4654:	1887883a 	add	r3,r3,r2
    4658:	d8801f17 	ldw	r2,124(sp)
    465c:	41000015 	stw	r4,0(r8)
    4660:	41400115 	stw	r5,4(r8)
    4664:	10800044 	addi	r2,r2,1
    4668:	d8c02015 	stw	r3,128(sp)
    466c:	d8801f15 	stw	r2,124(sp)
    4670:	010001c4 	movi	r4,7
    4674:	20832916 	blt	r4,r2,531c <___vfprintf_internal_r+0x1b54>
    4678:	42000204 	addi	r8,r8,8
    467c:	d8803317 	ldw	r2,204(sp)
    4680:	143fffc4 	addi	r16,r2,-1
    4684:	043ec50e 	bge	zero,r16,419c <___vfprintf_internal_r+0x9d4>
    4688:	04400404 	movi	r17,16
    468c:	d8801f17 	ldw	r2,124(sp)
    4690:	8c00880e 	bge	r17,r16,48b4 <___vfprintf_internal_r+0x10ec>
    4694:	01400074 	movhi	r5,1
    4698:	29497d84 	addi	r5,r5,9718
    469c:	d9402b15 	stw	r5,172(sp)
    46a0:	058001c4 	movi	r22,7
    46a4:	dcc02c17 	ldw	r19,176(sp)
    46a8:	00000306 	br	46b8 <___vfprintf_internal_r+0xef0>
    46ac:	42000204 	addi	r8,r8,8
    46b0:	843ffc04 	addi	r16,r16,-16
    46b4:	8c00820e 	bge	r17,r16,48c0 <___vfprintf_internal_r+0x10f8>
    46b8:	18c00404 	addi	r3,r3,16
    46bc:	10800044 	addi	r2,r2,1
    46c0:	45000015 	stw	r20,0(r8)
    46c4:	44400115 	stw	r17,4(r8)
    46c8:	d8c02015 	stw	r3,128(sp)
    46cc:	d8801f15 	stw	r2,124(sp)
    46d0:	b0bff60e 	bge	r22,r2,46ac <___vfprintf_internal_r+0xee4>
    46d4:	d9801e04 	addi	r6,sp,120
    46d8:	b80b883a 	mov	r5,r23
    46dc:	9809883a 	mov	r4,r19
    46e0:	000a5640 	call	a564 <__sprint_r>
    46e4:	103d3a1e 	bne	r2,zero,3bd0 <___vfprintf_internal_r+0x408>
    46e8:	d8c02017 	ldw	r3,128(sp)
    46ec:	d8801f17 	ldw	r2,124(sp)
    46f0:	da000404 	addi	r8,sp,16
    46f4:	003fee06 	br	46b0 <___vfprintf_internal_r+0xee8>
    46f8:	d9403117 	ldw	r5,196(sp)
    46fc:	d8802a17 	ldw	r2,168(sp)
    4700:	28adc83a 	sub	r22,r5,r2
    4704:	05be630e 	bge	zero,r22,4094 <___vfprintf_internal_r+0x8cc>
    4708:	07000404 	movi	fp,16
    470c:	d8801f17 	ldw	r2,124(sp)
    4710:	e5838f0e 	bge	fp,r22,5550 <___vfprintf_internal_r+0x1d88>
    4714:	01400074 	movhi	r5,1
    4718:	29497d84 	addi	r5,r5,9718
    471c:	dc403015 	stw	r17,192(sp)
    4720:	d9402b15 	stw	r5,172(sp)
    4724:	b023883a 	mov	r17,r22
    4728:	04c001c4 	movi	r19,7
    472c:	a82d883a 	mov	r22,r21
    4730:	902b883a 	mov	r21,r18
    4734:	8025883a 	mov	r18,r16
    4738:	dc002c17 	ldw	r16,176(sp)
    473c:	00000306 	br	474c <___vfprintf_internal_r+0xf84>
    4740:	8c7ffc04 	addi	r17,r17,-16
    4744:	42000204 	addi	r8,r8,8
    4748:	e440110e 	bge	fp,r17,4790 <___vfprintf_internal_r+0xfc8>
    474c:	18c00404 	addi	r3,r3,16
    4750:	10800044 	addi	r2,r2,1
    4754:	45000015 	stw	r20,0(r8)
    4758:	47000115 	stw	fp,4(r8)
    475c:	d8c02015 	stw	r3,128(sp)
    4760:	d8801f15 	stw	r2,124(sp)
    4764:	98bff60e 	bge	r19,r2,4740 <___vfprintf_internal_r+0xf78>
    4768:	d9801e04 	addi	r6,sp,120
    476c:	b80b883a 	mov	r5,r23
    4770:	8009883a 	mov	r4,r16
    4774:	000a5640 	call	a564 <__sprint_r>
    4778:	103d151e 	bne	r2,zero,3bd0 <___vfprintf_internal_r+0x408>
    477c:	8c7ffc04 	addi	r17,r17,-16
    4780:	d8c02017 	ldw	r3,128(sp)
    4784:	d8801f17 	ldw	r2,124(sp)
    4788:	da000404 	addi	r8,sp,16
    478c:	e47fef16 	blt	fp,r17,474c <___vfprintf_internal_r+0xf84>
    4790:	9021883a 	mov	r16,r18
    4794:	a825883a 	mov	r18,r21
    4798:	b02b883a 	mov	r21,r22
    479c:	882d883a 	mov	r22,r17
    47a0:	dc403017 	ldw	r17,192(sp)
    47a4:	d9002b17 	ldw	r4,172(sp)
    47a8:	1d87883a 	add	r3,r3,r22
    47ac:	10800044 	addi	r2,r2,1
    47b0:	41000015 	stw	r4,0(r8)
    47b4:	45800115 	stw	r22,4(r8)
    47b8:	d8c02015 	stw	r3,128(sp)
    47bc:	d8801f15 	stw	r2,124(sp)
    47c0:	010001c4 	movi	r4,7
    47c4:	20818e16 	blt	r4,r2,4e00 <___vfprintf_internal_r+0x1638>
    47c8:	42000204 	addi	r8,r8,8
    47cc:	003e3106 	br	4094 <___vfprintf_internal_r+0x8cc>
    47d0:	d9403317 	ldw	r5,204(sp)
    47d4:	00800044 	movi	r2,1
    47d8:	18c00044 	addi	r3,r3,1
    47dc:	1141530e 	bge	r2,r5,4d2c <___vfprintf_internal_r+0x1564>
    47e0:	dc401f17 	ldw	r17,124(sp)
    47e4:	00800044 	movi	r2,1
    47e8:	40800115 	stw	r2,4(r8)
    47ec:	8c400044 	addi	r17,r17,1
    47f0:	44000015 	stw	r16,0(r8)
    47f4:	d8c02015 	stw	r3,128(sp)
    47f8:	dc401f15 	stw	r17,124(sp)
    47fc:	008001c4 	movi	r2,7
    4800:	14416b16 	blt	r2,r17,4db0 <___vfprintf_internal_r+0x15e8>
    4804:	42000204 	addi	r8,r8,8
    4808:	d8803717 	ldw	r2,220(sp)
    480c:	d9003417 	ldw	r4,208(sp)
    4810:	8c400044 	addi	r17,r17,1
    4814:	10c7883a 	add	r3,r2,r3
    4818:	40800115 	stw	r2,4(r8)
    481c:	41000015 	stw	r4,0(r8)
    4820:	d8c02015 	stw	r3,128(sp)
    4824:	dc401f15 	stw	r17,124(sp)
    4828:	008001c4 	movi	r2,7
    482c:	14416916 	blt	r2,r17,4dd4 <___vfprintf_internal_r+0x160c>
    4830:	45800204 	addi	r22,r8,8
    4834:	d9003617 	ldw	r4,216(sp)
    4838:	d9403817 	ldw	r5,224(sp)
    483c:	000d883a 	mov	r6,zero
    4840:	000f883a 	mov	r7,zero
    4844:	d8c03c15 	stw	r3,240(sp)
